libpo-battlemanager.so.1 libpo-battlemanager1 #MINVER#
 _Z15qmlRegisterTypeI10FieldProxyEiPKciiS2_@Base 2.0.21
 _Z15qmlRegisterTypeI11BattleSceneEiPKciiS2_@Base 2.0.21
 _Z15qmlRegisterTypeI16AuxPokeDataProxyEiPKciiS2_@Base 2.0.21
 _Z15qmlRegisterTypeI16BattleSceneProxyEiv@Base 2.0.21
 _Z15qmlRegisterTypeI16MoveInfoAccessorEiPKciiS2_@Base 2.0.21
 _Z15qmlRegisterTypeI18BattleDefaultThemeEiPKciiS2_@Base 2.0.21
 _Z15qmlRegisterTypeI18ProxyDataContainerEiPKciiS2_@Base 2.0.21
 _Z15qmlRegisterTypeI19PokemonInfoAccessorEiv@Base 2.0.21
 _Z15qmlRegisterTypeI9MoveProxyEiPKciiS2_@Base 2.0.21
 _Z15qmlRegisterTypeI9PokeProxyEiPKciiS2_@Base 2.0.21
 _Z15qmlRegisterTypeI9TeamProxyEiPKciiS2_@Base 2.0.21
 _Z15qmlRegisterTypeI9ZoneProxyEiPKciiS2_@Base 2.0.21
 _Z17qRegisterMetaTypeIN7Pokemon8uniqueIdEEiPKcPT_@Base 2.0.21
 _Z21qMetaTypeDeleteHelperI24QDeclarativeListPropertyI10FieldProxyEEvPT_@Base 2.0.21
 _Z21qMetaTypeDeleteHelperI24QDeclarativeListPropertyI11BattleSceneEEvPT_@Base 2.0.21
 _Z21qMetaTypeDeleteHelperI24QDeclarativeListPropertyI16AuxPokeDataProxyEEvPT_@Base 2.0.21
 _Z21qMetaTypeDeleteHelperI24QDeclarativeListPropertyI16BattleSceneProxyEEvPT_@Base 2.0.21
 _Z21qMetaTypeDeleteHelperI24QDeclarativeListPropertyI16MoveInfoAccessorEEvPT_@Base 2.0.21
 _Z21qMetaTypeDeleteHelperI24QDeclarativeListPropertyI18BattleDefaultThemeEEvPT_@Base 2.0.21
 _Z21qMetaTypeDeleteHelperI24QDeclarativeListPropertyI18ProxyDataContainerEEvPT_@Base 2.0.21
 _Z21qMetaTypeDeleteHelperI24QDeclarativeListPropertyI19PokemonInfoAccessorEEvPT_@Base 2.0.21
 _Z21qMetaTypeDeleteHelperI24QDeclarativeListPropertyI9MoveProxyEEvPT_@Base 2.0.21
 _Z21qMetaTypeDeleteHelperI24QDeclarativeListPropertyI9PokeProxyEEvPT_@Base 2.0.21
 _Z21qMetaTypeDeleteHelperI24QDeclarativeListPropertyI9TeamProxyEEvPT_@Base 2.0.21
 _Z21qMetaTypeDeleteHelperI24QDeclarativeListPropertyI9ZoneProxyEEvPT_@Base 2.0.21
 _Z21qMetaTypeDeleteHelperIN7Pokemon8uniqueIdEEvPT_@Base 2.0.21
 _Z21qMetaTypeDeleteHelperIP10FieldProxyEvPT_@Base 2.0.21
 _Z21qMetaTypeDeleteHelperIP11BattleSceneEvPT_@Base 2.0.21
 _Z21qMetaTypeDeleteHelperIP16AuxPokeDataProxyEvPT_@Base 2.0.21
 _Z21qMetaTypeDeleteHelperIP16BattleSceneProxyEvPT_@Base 2.0.21
 _Z21qMetaTypeDeleteHelperIP16MoveInfoAccessorEvPT_@Base 2.0.21
 _Z21qMetaTypeDeleteHelperIP18BattleDefaultThemeEvPT_@Base 2.0.21
 _Z21qMetaTypeDeleteHelperIP18ProxyDataContainerEvPT_@Base 2.0.21
 _Z21qMetaTypeDeleteHelperIP19PokemonInfoAccessorEvPT_@Base 2.0.21
 _Z21qMetaTypeDeleteHelperIP9MoveProxyEvPT_@Base 2.0.21
 _Z21qMetaTypeDeleteHelperIP9PokeProxyEvPT_@Base 2.0.21
 _Z21qMetaTypeDeleteHelperIP9TeamProxyEvPT_@Base 2.0.21
 _Z21qMetaTypeDeleteHelperIP9ZoneProxyEvPT_@Base 2.0.21
 _Z24qMetaTypeConstructHelperI24QDeclarativeListPropertyI10FieldProxyEEPvPKT_@Base 2.0.21
 _Z24qMetaTypeConstructHelperI24QDeclarativeListPropertyI11BattleSceneEEPvPKT_@Base 2.0.21
 _Z24qMetaTypeConstructHelperI24QDeclarativeListPropertyI16AuxPokeDataProxyEEPvPKT_@Base 2.0.21
 _Z24qMetaTypeConstructHelperI24QDeclarativeListPropertyI16BattleSceneProxyEEPvPKT_@Base 2.0.21
 _Z24qMetaTypeConstructHelperI24QDeclarativeListPropertyI16MoveInfoAccessorEEPvPKT_@Base 2.0.21
 _Z24qMetaTypeConstructHelperI24QDeclarativeListPropertyI18BattleDefaultThemeEEPvPKT_@Base 2.0.21
 _Z24qMetaTypeConstructHelperI24QDeclarativeListPropertyI18ProxyDataContainerEEPvPKT_@Base 2.0.21
 _Z24qMetaTypeConstructHelperI24QDeclarativeListPropertyI19PokemonInfoAccessorEEPvPKT_@Base 2.0.21
 _Z24qMetaTypeConstructHelperI24QDeclarativeListPropertyI9MoveProxyEEPvPKT_@Base 2.0.21
 _Z24qMetaTypeConstructHelperI24QDeclarativeListPropertyI9PokeProxyEEPvPKT_@Base 2.0.21
 _Z24qMetaTypeConstructHelperI24QDeclarativeListPropertyI9TeamProxyEEPvPKT_@Base 2.0.21
 _Z24qMetaTypeConstructHelperI24QDeclarativeListPropertyI9ZoneProxyEEPvPKT_@Base 2.0.21
 _Z24qMetaTypeConstructHelperIN7Pokemon8uniqueIdEEPvPKT_@Base 2.0.21
 _Z24qMetaTypeConstructHelperIP10FieldProxyEPvPKT_@Base 2.0.21
 _Z24qMetaTypeConstructHelperIP11BattleSceneEPvPKT_@Base 2.0.21
 _Z24qMetaTypeConstructHelperIP16AuxPokeDataProxyEPvPKT_@Base 2.0.21
 _Z24qMetaTypeConstructHelperIP16BattleSceneProxyEPvPKT_@Base 2.0.21
 _Z24qMetaTypeConstructHelperIP16MoveInfoAccessorEPvPKT_@Base 2.0.21
 _Z24qMetaTypeConstructHelperIP18BattleDefaultThemeEPvPKT_@Base 2.0.21
 _Z24qMetaTypeConstructHelperIP18ProxyDataContainerEPvPKT_@Base 2.0.21
 _Z24qMetaTypeConstructHelperIP19PokemonInfoAccessorEPvPKT_@Base 2.0.21
 _Z24qMetaTypeConstructHelperIP9MoveProxyEPvPKT_@Base 2.0.21
 _Z24qMetaTypeConstructHelperIP9PokeProxyEPvPKT_@Base 2.0.21
 _Z24qMetaTypeConstructHelperIP9TeamProxyEPvPKT_@Base 2.0.21
 _Z24qMetaTypeConstructHelperIP9ZoneProxyEPvPKT_@Base 2.0.21
 _Z2mkI11BattleStatsESt10shared_ptrIT_Ev@Base 2.0.21
 _Z2mkI13BattleChoicesESt10shared_ptrIT_Ev@Base 2.0.21
 _Z2mkI15RearrangeChoiceESt10shared_ptrIT_Ev@Base 2.0.21
 _Z2mkI16ShallowShownTeamESt10shared_ptrIT_Ev@Base 2.0.21
 _Z2mkI17ShallowBattlePokeESt10shared_ptrIT_Ev@Base 2.0.21
 _Z2mkI7QStringESt10shared_ptrIT_Ev@Base 2.0.21
 _Z2tuR7QString@Base 2.0.21
 _Z2tuRK7QString@Base 2.0.21
 _Z7testingv@Base 2.0.21
 _ZN10DataStreamD0Ev@Base 2.0.21
 _ZN10DataStreamD1Ev@Base 2.0.21
 _ZN10DataStreamD2Ev@Base 2.0.21
 _ZN10FieldProxy10setWeatherEi@Base 2.0.21
 _ZN10FieldProxy11qt_metacallEN11QMetaObject4CallEiPPv@Base 2.0.21
 _ZN10FieldProxy11qt_metacastEPKc@Base 2.0.21
 _ZN10FieldProxy14weatherChangedEv@Base 2.0.21
 _ZN10FieldProxy16staticMetaObjectE@Base 2.0.21
 _ZN10FieldProxyC1Ei@Base 2.0.21
 _ZN10FieldProxyC2Ei@Base 2.0.21
 _ZN10FieldProxyD0Ev@Base 2.0.21
 _ZN10FieldProxyD1Ev@Base 2.0.21
 _ZN10FieldProxyD2Ev@Base 2.0.21
 _ZN10PokeBattle14setLifePercentEh@Base 2.0.21
 _ZN10PokeBattle7setLifeEi@Base 2.0.21
 _ZN10PokeBattleD0Ev@Base 2.0.21
 _ZN10PokeBattleD1Ev@Base 2.0.21
 _ZN10PokeBattleD2Ev@Base 2.0.21
 _ZN10QByteArrayD1Ev@Base 2.0.21
 _ZN10QByteArrayD2Ev@Base 2.0.21
 _ZN11AuxPokeData10onSendBackEv@Base 2.0.21
 _ZN11AuxPokeData9onSendOutEP17ShallowBattlePoke@Base 2.0.21
 _ZN11AuxPokeDataC1Ev@Base 2.0.21
 _ZN11AuxPokeDataC2Ev@Base 2.0.21
 _ZN11BattleInput11receiveDataE10QByteArray@Base 2.0.21
 _ZN11BattleInput19dealWithCommandInfoER10DataStreamhi@Base 2.0.21
 _ZN11BattleInput5pauseEi@Base 2.0.21
 _ZN11BattleInput6pausedEv@Base 2.0.21
 _ZN11BattleInput7unpauseEi@Base 2.0.21
 _ZN11BattleInputC1EPK19BattleConfiguration@Base 2.0.21
 _ZN11BattleInputC2EPK19BattleConfiguration@Base 2.0.21
 _ZN11BattleInputD0Ev@Base 2.0.21
 _ZN11BattleInputD1Ev@Base 2.0.21
 _ZN11BattleInputD2Ev@Base 2.0.21
 _ZN11BattleScene10attackUsedEii4QMapI7QString8QVariantE@Base 2.0.21
 _ZN11BattleScene10useCommandEv@Base 2.0.21
 _ZN11BattleScene11onStatBoostEiiib@Base 2.0.21
 _ZN11BattleScene11onUseAttackEiib@Base 2.0.21
 _ZN11BattleScene11qt_metacallEN11QMetaObject4CallEiPPv@Base 2.0.21
 _ZN11BattleScene11qt_metacastEPKc@Base 2.0.21
 _ZN11BattleScene11stopPeekingEv@Base 2.0.21
 _ZN11BattleScene11useCommandsEv@Base 2.0.21
 _ZN11BattleScene12getDataProxyEv@Base 2.0.21
 _ZN11BattleScene12printMessageERK7QString@Base 2.0.21
 _ZN11BattleScene12startPeekingEv@Base 2.0.21
 _ZN11BattleScene14replayCommandsEv@Base 2.0.21
 _ZN11BattleScene14statboostlevelEv@Base 2.0.21
 _ZN11BattleScene15BattleSceneInfoD1Ev@Base 2.0.21
 _ZN11BattleScene15BattleSceneInfoD2Ev@Base 2.0.21
 _ZN11BattleScene15weatherContinueEv@Base 2.0.21
 _ZN11BattleScene16staticMetaObjectE@Base 2.0.21
 _ZN11BattleScene18shouldStartPeekingE5paramIL10BattleEnum12EEiiib@Base 2.0.21
 _ZN11BattleScene18shouldStartPeekingE5paramIL10BattleEnum5EEiib@Base 2.0.21
 _ZN11BattleScene21shouldContinuePeekingE5paramIL10BattleEnum12EEiiib@Base 2.0.21
 _ZN11BattleScene3hitEii4QMapI7QString8QVariantE@Base 2.0.21
 _ZN11BattleScene3logERK7QString@Base 2.0.21
 _ZN11BattleScene4dataEv@Base 2.0.21
 _ZN11BattleScene5debugERK7QString@Base 2.0.21
 _ZN11BattleScene5pauseEi@Base 2.0.21
 _ZN11BattleScene6launchEv@Base 2.0.21
 _ZN11BattleScene6onPeekEi@Base 2.0.21
 _ZN11BattleScene7playCryEi@Base 2.0.21
 _ZN11BattleScene7unpauseEi@Base 2.0.21
 _ZN11BattleScene8isPlayerEi@Base 2.0.21
 _ZN11BattleScene8launchedEv@Base 2.0.21
 _ZN11BattleScene8reversedEv@Base 2.0.21
 _ZN11BattleScene9battleLogERK7QString@Base 2.0.21
 _ZN11BattleScene9getWidgetEv@Base 2.0.21
 _ZN11BattleSceneC1EP18AdvancedBattleDataP18BattleDefaultTheme4QMapI7QString8QVariantE@Base 2.0.21
 _ZN11BattleSceneC2EP18AdvancedBattleDataP18BattleDefaultTheme4QMapI7QString8QVariantE@Base 2.0.21
 _ZN11BattleSceneD0Ev@Base 2.0.21
 _ZN11BattleSceneD1Ev@Base 2.0.21
 _ZN11BattleSceneD2Ev@Base 2.0.21
 _ZN11QLinkedListIiE13detach_helperEv@Base 2.0.21
 _ZN11QLinkedListIiED1Ev@Base 2.0.21
 _ZN11QLinkedListIiED2Ev@Base 2.0.21
 _ZN11QStringListD1Ev@Base 2.0.21
 _ZN11QStringListD2Ev@Base 2.0.21
 _ZN12GraphicsZone10loadPixmapEN7Pokemon8uniqueIdEbbhb@Base 2.0.21
 _ZN12GraphicsZone10updatePokeEi@Base 2.0.21
 _ZN12GraphicsZone13updateToolTipEi@Base 2.0.21
 _ZN12GraphicsZone14mouseMoveEventEP11QMouseEvent@Base 2.0.21
 _ZN12GraphicsZone14switchToNaughtEi@Base 2.0.21
 _ZN12GraphicsZone9updatePosEi@Base 2.0.21
 _ZN12GraphicsZoneC1EP18AdvancedBattleDataP18BattleDefaultTheme@Base 2.0.21
 _ZN12GraphicsZoneC2EP18AdvancedBattleDataP18BattleDefaultTheme@Base 2.0.21
 _ZN12GraphicsZoneD0Ev@Base 2.0.21
 _ZN12GraphicsZoneD1Ev@Base 2.0.21
 _ZN12GraphicsZoneD2Ev@Base 2.0.21
 _ZN13DataContainer10reloadTeamEi@Base 2.0.21
 _ZN13DataContainerC1EPK19BattleConfiguration@Base 2.0.21
 _ZN13DataContainerC2EPK19BattleConfiguration@Base 2.0.21
 _ZN13DataContainerD1Ev@Base 2.0.21
 _ZN13DataContainerD2Ev@Base 2.0.21
 _ZN14CommandManagerI10BattleEnum11BattleInput15BattleExtracterIS1_E11CommandFlowIS0_S1_E20BattleCommandInvokerIS1_EE12entryPoint_vES0_RA1_13__va_list_tag@Base 2.0.21
 _ZN14CommandManagerI10BattleEnum11BattleInput15BattleExtracterIS1_E11CommandFlowIS0_S1_E20BattleCommandInvokerIS1_EE5storeEP15AbstractCommand@Base 2.0.21
 _ZN14CommandManagerI10BattleEnum11BattleInput15BattleExtracterIS1_E11CommandFlowIS0_S1_E20BattleCommandInvokerIS1_EED0Ev@Base 2.0.21
 _ZN14CommandManagerI10BattleEnum11BattleInput15BattleExtracterIS1_E11CommandFlowIS0_S1_E20BattleCommandInvokerIS1_EED1Ev@Base 2.0.21
 _ZN14CommandManagerI10BattleEnum11BattleInput15BattleExtracterIS1_E11CommandFlowIS0_S1_E20BattleCommandInvokerIS1_EED2Ev@Base 2.0.21
 _ZN14CommandManagerI10BattleEnum11BattleScene15BattleExtracterIS1_E15BattleSceneFlowIS0_S1_E20BattleCommandInvokerIS1_EE12entryPoint_vES0_RA1_13__va_list_tag@Base 2.0.21
 _ZN14CommandManagerI10BattleEnum11BattleScene15BattleExtracterIS1_E15BattleSceneFlowIS0_S1_E20BattleCommandInvokerIS1_EED0Ev@Base 2.0.21
 _ZN14CommandManagerI10BattleEnum11BattleScene15BattleExtracterIS1_E15BattleSceneFlowIS0_S1_E20BattleCommandInvokerIS1_EED1Ev@Base 2.0.21
 _ZN14CommandManagerI10BattleEnum11BattleScene15BattleExtracterIS1_E15BattleSceneFlowIS0_S1_E20BattleCommandInvokerIS1_EED2Ev@Base 2.0.21
 _ZN14CommandManagerI10BattleEnum14TestBattleData15BattleExtracterIS1_E11CommandFlowIS0_S1_E20BattleCommandInvokerIS1_EE12entryPoint_vES0_RA1_13__va_list_tag@Base 2.0.21
 _ZN14CommandManagerI10BattleEnum14TestBattleData15BattleExtracterIS1_E11CommandFlowIS0_S1_E20BattleCommandInvokerIS1_EED0Ev@Base 2.0.21
 _ZN14CommandManagerI10BattleEnum14TestBattleData15BattleExtracterIS1_E11CommandFlowIS0_S1_E20BattleCommandInvokerIS1_EED1Ev@Base 2.0.21
 _ZN14CommandManagerI10BattleEnum14TestBattleData15BattleExtracterIS1_E11CommandFlowIS0_S1_E20BattleCommandInvokerIS1_EED2Ev@Base 2.0.21
 _ZN14CommandManagerI10BattleEnum15BattleClientLog15BattleExtracterIS1_E11CommandFlowIS0_S1_E20BattleCommandInvokerIS1_EE12entryPoint_vES0_RA1_13__va_list_tag@Base 2.0.21
 _ZN14CommandManagerI10BattleEnum15BattleClientLog15BattleExtracterIS1_E11CommandFlowIS0_S1_E20BattleCommandInvokerIS1_EED0Ev@Base 2.0.21
 _ZN14CommandManagerI10BattleEnum15BattleClientLog15BattleExtracterIS1_E11CommandFlowIS0_S1_E20BattleCommandInvokerIS1_EED1Ev@Base 2.0.21
 _ZN14CommandManagerI10BattleEnum15BattleClientLog15BattleExtracterIS1_E11CommandFlowIS0_S1_E20BattleCommandInvokerIS1_EED2Ev@Base 2.0.21
 _ZN14CommandManagerI10BattleEnum18RegularBattleScene15BattleExtracterIS1_E11CommandFlowIS0_S1_E20BattleCommandInvokerIS1_EE12entryPoint_vES0_RA1_13__va_list_tag@Base 2.0.21
 _ZN14CommandManagerI10BattleEnum18RegularBattleScene15BattleExtracterIS1_E11CommandFlowIS0_S1_E20BattleCommandInvokerIS1_EED0Ev@Base 2.0.21
 _ZN14CommandManagerI10BattleEnum18RegularBattleScene15BattleExtracterIS1_E11CommandFlowIS0_S1_E20BattleCommandInvokerIS1_EED1Ev@Base 2.0.21
 _ZN14CommandManagerI10BattleEnum18RegularBattleScene15BattleExtracterIS1_E11CommandFlowIS0_S1_E20BattleCommandInvokerIS1_EED2Ev@Base 2.0.21
 _ZN14TestBattleDataD0Ev@Base 2.0.21
 _ZN14TestBattleDataD1Ev@Base 2.0.21
 _ZN14TestBattleDataD2Ev@Base 2.0.21
 _ZN15AbstractCommandD0Ev@Base 2.0.21
 _ZN15AbstractCommandD1Ev@Base 2.0.21
 _ZN15AbstractCommandD2Ev@Base 2.0.21
 _ZN15BattleClientLog10onHitCountEii@Base 2.0.21
 _ZN15BattleClientLog10onHpChangeEii@Base 2.0.21
 _ZN15BattleClientLog10onNoTargetEi@Base 2.0.21
 _ZN15BattleClientLog10onSendBackEib@Base 2.0.21
 _ZN15BattleClientLog11onBattleEndEii@Base 2.0.21
 _ZN15BattleClientLog11onBeginTurnEi@Base 2.0.21
 _ZN15BattleClientLog11onPrintHtmlERK7QString@Base 2.0.21
 _ZN15BattleClientLog11onReconnectEi@Base 2.0.21
 _ZN15BattleClientLog11onStatBoostEiiib@Base 2.0.21
 _ZN15BattleClientLog11onUseAttackEiib@Base 2.0.21
 _ZN15BattleClientLog11onVariationEiii@Base 2.0.21
 _ZN15BattleClientLog11printSilentERK7QString@Base 2.0.21
 _ZN15BattleClientLog11qt_metacallEN11QMetaObject4CallEiPPv@Base 2.0.21
 _ZN15BattleClientLog11qt_metacastEPKc@Base 2.0.21
 _ZN15BattleClientLog12onDamageDoneEii@Base 2.0.21
 _ZN15BattleClientLog12onDisconnectEi@Base 2.0.21
 _ZN15BattleClientLog12onEndWeatherEi@Base 2.0.21
 _ZN15BattleClientLog12onShiftSpotsEiiib@Base 2.0.21
 _ZN15BattleClientLog12onStatusOverEii@Base 2.0.21
 _ZN15BattleClientLog13onCriticalHitEi@Base 2.0.21
 _ZN15BattleClientLog13onHurtWeatherEii@Base 2.0.21
 _ZN15BattleClientLog13onItemMessageEiiiiii@Base 2.0.21
 _ZN15BattleClientLog13onMoveMessageEiiiiiiRK7QString@Base 2.0.21
 _ZN15BattleClientLog14onBlankMessageEv@Base 2.0.21
 _ZN15BattleClientLog14onStartWeatherEiib@Base 2.0.21
 _ZN15BattleClientLog14onStatusDamageEii@Base 2.0.21
 _ZN15BattleClientLog15lineToBePrintedERK7QString@Base 2.0.21
 _ZN15BattleClientLog15onAttackFailingEib@Base 2.0.21
 _ZN15BattleClientLog15onDisconnectionEv@Base 2.0.21
 _ZN15BattleClientLog15onEffectivenessEii@Base 2.0.21
 _ZN15BattleClientLog15onPlayerMessageEiRK7QString@Base 2.0.21
 _ZN15BattleClientLog15onRearrangeTeamEiRK16ShallowShownTeam@Base 2.0.21
 _ZN15BattleClientLog15onSpectatorChatEiRK7QString@Base 2.0.21
 _ZN15BattleClientLog15onSpectatorJoinEiRK7QString@Base 2.0.21
 _ZN15BattleClientLog16onAbilityMessageEiiiiii@Base 2.0.21
 _ZN15BattleClientLog16onSpectatorLeaveEi@Base 2.0.21
 _ZN15BattleClientLog16staticMetaObjectE@Base 2.0.21
 _ZN15BattleClientLog17onClauseActivatedEi@Base 2.0.21
 _ZN15BattleClientLog17onContinueWeatherEi@Base 2.0.21
 _ZN15BattleClientLog18onSubstituteStatusEib@Base 2.0.21
 _ZN15BattleClientLog18onTierNotificationERK7QString@Base 2.0.21
 _ZN15BattleClientLog19onMajorStatusChangeEiibb@Base 2.0.21
 _ZN15BattleClientLog19onRatedNotificationEb@Base 2.0.21
 _ZN15BattleClientLog20onStatusAlreadyThereEii@Base 2.0.21
 _ZN15BattleClientLog20onStatusNotificationEii@Base 2.0.21
 _ZN15BattleClientLog23onPokeballStatusChangedEiii@Base 2.0.21
 _ZN15BattleClientLog4dataEv@Base 2.0.21
 _ZN15BattleClientLog4nickEi@Base 2.0.21
 _ZN15BattleClientLog4onKoEi@Base 2.0.21
 _ZN15BattleClientLog5rnickEi@Base 2.0.21
 _ZN15BattleClientLog5themeEv@Base 2.0.21
 _ZN15BattleClientLog6getLogEv@Base 2.0.21
 _ZN15BattleClientLog6onMissEi@Base 2.0.21
 _ZN15BattleClientLog7emitAllEv@Base 2.0.21
 _ZN15BattleClientLog7onAvoidEi@Base 2.0.21
 _ZN15BattleClientLog8onFlinchEi@Base 2.0.21
 _ZN15BattleClientLog8onRecoilEi@Base 2.0.21
 _ZN15BattleClientLog8pushHtmlERK7QString@Base 2.0.21
 _ZN15BattleClientLog8setThemeEP18BattleDefaultTheme@Base 2.0.21
 _ZN15BattleClientLog9onDrainedEi@Base 2.0.21
 _ZN15BattleClientLog9onSendOutEiiP17ShallowBattlePokeb@Base 2.0.21
 _ZN15BattleClientLog9onUseItemEii@Base 2.0.21
 _ZN15BattleClientLog9printHtmlERK7QStringS2_@Base 2.0.21
 _ZN15BattleClientLog9printLineERK7QStringS2_b@Base 2.0.21
 _ZN15BattleClientLogC1EP10BattleDataI13DataContainerEP18BattleDefaultThemeb@Base 2.0.21
 _ZN15BattleClientLogC2EP10BattleDataI13DataContainerEP18BattleDefaultThemeb@Base 2.0.21
 _ZN15BattleClientLogD0Ev@Base 2.0.21
 _ZN15BattleClientLogD1Ev@Base 2.0.21
 _ZN15BattleClientLogD2Ev@Base 2.0.21
 _ZN15BattleExtracterI11BattleInputE11extractFailERA1_13__va_list_tag@Base 2.0.21
 _ZN15BattleExtracterI11BattleInputE11extractHitsERA1_13__va_list_tag@Base 2.0.21
 _ZN15BattleExtracterI11BattleInputE11extractMissERA1_13__va_list_tag@Base 2.0.21
 _ZN15BattleExtracterI11BattleInputE11extractTurnERA1_13__va_list_tag@Base 2.0.21
 _ZN15BattleExtracterI11BattleInputE12entryPoint_vE10BattleEnumRA1_13__va_list_tag@Base 2.0.21
 _ZN15BattleExtracterI11BattleInputE12extractAvoidERA1_13__va_list_tag@Base 2.0.21
 _ZN15BattleExtracterI11BattleInputE12extractNewHpERA1_13__va_list_tag@Base 2.0.21
 _ZN15BattleExtracterI11BattleInputE13extractFlinchERA1_13__va_list_tag@Base 2.0.21
 _ZN15BattleExtracterI11BattleInputE13extractRecoilERA1_13__va_list_tag@Base 2.0.21
 _ZN15BattleExtracterI11BattleInputE14extractDamagedERA1_13__va_list_tag@Base 2.0.21
 _ZN15BattleExtracterI11BattleInputE14extractDrainedERA1_13__va_list_tag@Base 2.0.21
 _ZN15BattleExtracterI11BattleInputE14extractSendOutERA1_13__va_list_tag@Base 2.0.21
 _ZN15BattleExtracterI11BattleInputE14extractUseItemERA1_13__va_list_tag@Base 2.0.21
 _ZN15BattleExtracterI11BattleInputE15extractPPChangeERA1_13__va_list_tag@Base 2.0.21
 _ZN15BattleExtracterI11BattleInputE15extractSendBackERA1_13__va_list_tag@Base 2.0.21
 _ZN15BattleExtracterI11BattleInputE15extractTierInfoERA1_13__va_list_tag@Base 2.0.21
 _ZN15BattleExtracterI11BattleInputE16extractBattleEndERA1_13__va_list_tag@Base 2.0.21
 _ZN15BattleExtracterI11BattleInputE16extractClockStopERA1_13__va_list_tag@Base 2.0.21
 _ZN15BattleExtracterI11BattleInputE16extractPrintHtmlERA1_13__va_list_tag@Base 2.0.21
 _ZN15BattleExtracterI11BattleInputE16extractRatedInfoERA1_13__va_list_tag@Base 2.0.21
 _ZN15BattleExtracterI11BattleInputE16extractReconnectERA1_13__va_list_tag@Base 2.0.21
 _ZN15BattleExtracterI11BattleInputE16extractUseAttackERA1_13__va_list_tag@Base 2.0.21
 _ZN15BattleExtracterI11BattleInputE16extractVariationERA1_13__va_list_tag@Base 2.0.21
 _ZN15BattleExtracterI11BattleInputE17extractChooseDrawERA1_13__va_list_tag@Base 2.0.21
 _ZN15BattleExtracterI11BattleInputE17extractClockStartERA1_13__va_list_tag@Base 2.0.21
 _ZN15BattleExtracterI11BattleInputE17extractDisconnectERA1_13__va_list_tag@Base 2.0.21
 _ZN15BattleExtracterI11BattleInputE17extractEndWeatherERA1_13__va_list_tag@Base 2.0.21
 _ZN15BattleExtracterI11BattleInputE17extractMoveChangeERA1_13__va_list_tag@Base 2.0.21
 _ZN15BattleExtracterI11BattleInputE17extractShiftSpotsERA1_13__va_list_tag@Base 2.0.21
 _ZN15BattleExtracterI11BattleInputE17extractStatChangeERA1_13__va_list_tag@Base 2.0.21
 _ZN15BattleExtracterI11BattleInputE17extractStatusFeelERA1_13__va_list_tag@Base 2.0.21
 _ZN15BattleExtracterI11BattleInputE17extractStatusFreeERA1_13__va_list_tag@Base 2.0.21
 _ZN15BattleExtracterI11BattleInputE17extractStatusHurtERA1_13__va_list_tag@Base 2.0.21
 _ZN15BattleExtracterI11BattleInputE18extractCriticalHitERA1_13__va_list_tag@Base 2.0.21
 _ZN15BattleExtracterI11BattleInputE18extractItemMessageERA1_13__va_list_tag@Base 2.0.21
 _ZN15BattleExtracterI11BattleInputE18extractMoveMessageERA1_13__va_list_tag@Base 2.0.21
 _ZN15BattleExtracterI11BattleInputE18extractOfferChoiceERA1_13__va_list_tag@Base 2.0.21
 _ZN15BattleExtracterI11BattleInputE19extractBlankMessageERA1_13__va_list_tag@Base 2.0.21
 _ZN15BattleExtracterI11BattleInputE19extractChooseAttackERA1_13__va_list_tag@Base 2.0.21
 _ZN15BattleExtracterI11BattleInputE19extractChooseCancelERA1_13__va_list_tag@Base 2.0.21
 _ZN15BattleExtracterI11BattleInputE19extractChooseSwitchERA1_13__va_list_tag@Base 2.0.21
 _ZN15BattleExtracterI11BattleInputE19extractDynamicStatsERA1_13__va_list_tag@Base 2.0.21
 _ZN15BattleExtracterI11BattleInputE19extractSpriteChangeERA1_13__va_list_tag@Base 2.0.21
 _ZN15BattleExtracterI11BattleInputE19extractStartWeatherERA1_13__va_list_tag@Base 2.0.21
 _ZN15BattleExtracterI11BattleInputE19extractTempPPChangeERA1_13__va_list_tag@Base 2.0.21
 _ZN15BattleExtracterI11BattleInputE20extractClauseMessageERA1_13__va_list_tag@Base 2.0.21
 _ZN15BattleExtracterI11BattleInputE20extractEffectivenessERA1_13__va_list_tag@Base 2.0.21
 _ZN15BattleExtracterI11BattleInputE20extractPlayerMessageERA1_13__va_list_tag@Base 2.0.21
 _ZN15BattleExtracterI11BattleInputE20extractPokemonVanishERA1_13__va_list_tag@Base 2.0.21
 _ZN15BattleExtracterI11BattleInputE20extractRearrangeTeamERA1_13__va_list_tag@Base 2.0.21
 _ZN15BattleExtracterI11BattleInputE20extractWeatherDamageERA1_13__va_list_tag@Base 2.0.21
 _ZN15BattleExtracterI11BattleInputE21extractAbilityMessageERA1_13__va_list_tag@Base 2.0.21
 _ZN15BattleExtracterI11BattleInputE21extractSpectatorEnterERA1_13__va_list_tag@Base 2.0.21
 _ZN15BattleExtracterI11BattleInputE21extractSpectatorLeaveERA1_13__va_list_tag@Base 2.0.21
 _ZN15BattleExtracterI11BattleInputE21extractWeatherMessageERA1_13__va_list_tag@Base 2.0.21
 _ZN15BattleExtracterI11BattleInputE22extractChoiceCancelledERA1_13__va_list_tag@Base 2.0.21
 _ZN15BattleExtracterI11BattleInputE22extractChoiceSelectionERA1_13__va_list_tag@Base 2.0.21
 _ZN15BattleExtracterI11BattleInputE22extractItemCountChangeERA1_13__va_list_tag@Base 2.0.21
 _ZN15BattleExtracterI11BattleInputE22extractNoTargetMessageERA1_13__va_list_tag@Base 2.0.21
 _ZN15BattleExtracterI11BattleInputE22extractPokemonReappearERA1_13__va_list_tag@Base 2.0.21
 _ZN15BattleExtracterI11BattleInputE23extractSpectatorMessageERA1_13__va_list_tag@Base 2.0.21
 _ZN15BattleExtracterI11BattleInputE23extractSubstituteStatusERA1_13__va_list_tag@Base 2.0.21
 _ZN15BattleExtracterI11BattleInputE25extractStatBoostsAndFieldERA1_13__va_list_tag@Base 2.0.21
 _ZN15BattleExtracterI11BattleInputE26extractChooseRearrangeTeamERA1_13__va_list_tag@Base 2.0.21
 _ZN15BattleExtracterI11BattleInputE26extractChooseShiftToCenterERA1_13__va_list_tag@Base 2.0.21
 _ZN15BattleExtracterI11BattleInputE26extractClassicStatusChangeERA1_13__va_list_tag@Base 2.0.21
 _ZN15BattleExtracterI11BattleInputE26extractCosmeticFormeChangeERA1_13__va_list_tag@Base 2.0.21
 _ZN15BattleExtracterI11BattleInputE26extractDefiniteFormeChangeERA1_13__va_list_tag@Base 2.0.21
 _ZN15BattleExtracterI11BattleInputE27extractAbsoluteStatusChangeERA1_13__va_list_tag@Base 2.0.21
 _ZN15BattleExtracterI11BattleInputE27extractAlreadyStatusMessageERA1_13__va_list_tag@Base 2.0.21
 _ZN15BattleExtracterI11BattleInputE9extractKoERA1_13__va_list_tag@Base 2.0.21
 _ZN15BattleExtracterI11BattleInputEC1Ev@Base 2.0.21
 _ZN15BattleExtracterI11BattleInputEC2Ev@Base 2.0.21
 _ZN15BattleExtracterI11BattleSceneE11extractFailERA1_13__va_list_tag@Base 2.0.21
 _ZN15BattleExtracterI11BattleSceneE11extractHitsERA1_13__va_list_tag@Base 2.0.21
 _ZN15BattleExtracterI11BattleSceneE11extractMissERA1_13__va_list_tag@Base 2.0.21
 _ZN15BattleExtracterI11BattleSceneE11extractTurnERA1_13__va_list_tag@Base 2.0.21
 _ZN15BattleExtracterI11BattleSceneE12entryPoint_vE10BattleEnumRA1_13__va_list_tag@Base 2.0.21
 _ZN15BattleExtracterI11BattleSceneE12extractAvoidERA1_13__va_list_tag@Base 2.0.21
 _ZN15BattleExtracterI11BattleSceneE12extractNewHpERA1_13__va_list_tag@Base 2.0.21
 _ZN15BattleExtracterI11BattleSceneE13extractFlinchERA1_13__va_list_tag@Base 2.0.21
 _ZN15BattleExtracterI11BattleSceneE13extractRecoilERA1_13__va_list_tag@Base 2.0.21
 _ZN15BattleExtracterI11BattleSceneE14extractDamagedERA1_13__va_list_tag@Base 2.0.21
 _ZN15BattleExtracterI11BattleSceneE14extractDrainedERA1_13__va_list_tag@Base 2.0.21
 _ZN15BattleExtracterI11BattleSceneE14extractSendOutERA1_13__va_list_tag@Base 2.0.21
 _ZN15BattleExtracterI11BattleSceneE14extractUseItemERA1_13__va_list_tag@Base 2.0.21
 _ZN15BattleExtracterI11BattleSceneE15extractPPChangeERA1_13__va_list_tag@Base 2.0.21
 _ZN15BattleExtracterI11BattleSceneE15extractSendBackERA1_13__va_list_tag@Base 2.0.21
 _ZN15BattleExtracterI11BattleSceneE15extractTierInfoERA1_13__va_list_tag@Base 2.0.21
 _ZN15BattleExtracterI11BattleSceneE16extractBattleEndERA1_13__va_list_tag@Base 2.0.21
 _ZN15BattleExtracterI11BattleSceneE16extractClockStopERA1_13__va_list_tag@Base 2.0.21
 _ZN15BattleExtracterI11BattleSceneE16extractPrintHtmlERA1_13__va_list_tag@Base 2.0.21
 _ZN15BattleExtracterI11BattleSceneE16extractRatedInfoERA1_13__va_list_tag@Base 2.0.21
 _ZN15BattleExtracterI11BattleSceneE16extractReconnectERA1_13__va_list_tag@Base 2.0.21
 _ZN15BattleExtracterI11BattleSceneE16extractUseAttackERA1_13__va_list_tag@Base 2.0.21
 _ZN15BattleExtracterI11BattleSceneE16extractVariationERA1_13__va_list_tag@Base 2.0.21
 _ZN15BattleExtracterI11BattleSceneE17extractChooseDrawERA1_13__va_list_tag@Base 2.0.21
 _ZN15BattleExtracterI11BattleSceneE17extractClockStartERA1_13__va_list_tag@Base 2.0.21
 _ZN15BattleExtracterI11BattleSceneE17extractDisconnectERA1_13__va_list_tag@Base 2.0.21
 _ZN15BattleExtracterI11BattleSceneE17extractEndWeatherERA1_13__va_list_tag@Base 2.0.21
 _ZN15BattleExtracterI11BattleSceneE17extractMoveChangeERA1_13__va_list_tag@Base 2.0.21
 _ZN15BattleExtracterI11BattleSceneE17extractShiftSpotsERA1_13__va_list_tag@Base 2.0.21
 _ZN15BattleExtracterI11BattleSceneE17extractStatChangeERA1_13__va_list_tag@Base 2.0.21
 _ZN15BattleExtracterI11BattleSceneE17extractStatusFeelERA1_13__va_list_tag@Base 2.0.21
 _ZN15BattleExtracterI11BattleSceneE17extractStatusFreeERA1_13__va_list_tag@Base 2.0.21
 _ZN15BattleExtracterI11BattleSceneE17extractStatusHurtERA1_13__va_list_tag@Base 2.0.21
 _ZN15BattleExtracterI11BattleSceneE18extractCriticalHitERA1_13__va_list_tag@Base 2.0.21
 _ZN15BattleExtracterI11BattleSceneE18extractItemMessageERA1_13__va_list_tag@Base 2.0.21
 _ZN15BattleExtracterI11BattleSceneE18extractMoveMessageERA1_13__va_list_tag@Base 2.0.21
 _ZN15BattleExtracterI11BattleSceneE18extractOfferChoiceERA1_13__va_list_tag@Base 2.0.21
 _ZN15BattleExtracterI11BattleSceneE19extractBlankMessageERA1_13__va_list_tag@Base 2.0.21
 _ZN15BattleExtracterI11BattleSceneE19extractChooseAttackERA1_13__va_list_tag@Base 2.0.21
 _ZN15BattleExtracterI11BattleSceneE19extractChooseCancelERA1_13__va_list_tag@Base 2.0.21
 _ZN15BattleExtracterI11BattleSceneE19extractChooseSwitchERA1_13__va_list_tag@Base 2.0.21
 _ZN15BattleExtracterI11BattleSceneE19extractDynamicStatsERA1_13__va_list_tag@Base 2.0.21
 _ZN15BattleExtracterI11BattleSceneE19extractSpriteChangeERA1_13__va_list_tag@Base 2.0.21
 _ZN15BattleExtracterI11BattleSceneE19extractStartWeatherERA1_13__va_list_tag@Base 2.0.21
 _ZN15BattleExtracterI11BattleSceneE19extractTempPPChangeERA1_13__va_list_tag@Base 2.0.21
 _ZN15BattleExtracterI11BattleSceneE20extractClauseMessageERA1_13__va_list_tag@Base 2.0.21
 _ZN15BattleExtracterI11BattleSceneE20extractEffectivenessERA1_13__va_list_tag@Base 2.0.21
 _ZN15BattleExtracterI11BattleSceneE20extractPlayerMessageERA1_13__va_list_tag@Base 2.0.21
 _ZN15BattleExtracterI11BattleSceneE20extractPokemonVanishERA1_13__va_list_tag@Base 2.0.21
 _ZN15BattleExtracterI11BattleSceneE20extractRearrangeTeamERA1_13__va_list_tag@Base 2.0.21
 _ZN15BattleExtracterI11BattleSceneE20extractWeatherDamageERA1_13__va_list_tag@Base 2.0.21
 _ZN15BattleExtracterI11BattleSceneE21extractAbilityMessageERA1_13__va_list_tag@Base 2.0.21
 _ZN15BattleExtracterI11BattleSceneE21extractSpectatorEnterERA1_13__va_list_tag@Base 2.0.21
 _ZN15BattleExtracterI11BattleSceneE21extractSpectatorLeaveERA1_13__va_list_tag@Base 2.0.21
 _ZN15BattleExtracterI11BattleSceneE21extractWeatherMessageERA1_13__va_list_tag@Base 2.0.21
 _ZN15BattleExtracterI11BattleSceneE22extractChoiceCancelledERA1_13__va_list_tag@Base 2.0.21
 _ZN15BattleExtracterI11BattleSceneE22extractChoiceSelectionERA1_13__va_list_tag@Base 2.0.21
 _ZN15BattleExtracterI11BattleSceneE22extractItemCountChangeERA1_13__va_list_tag@Base 2.0.21
 _ZN15BattleExtracterI11BattleSceneE22extractNoTargetMessageERA1_13__va_list_tag@Base 2.0.21
 _ZN15BattleExtracterI11BattleSceneE22extractPokemonReappearERA1_13__va_list_tag@Base 2.0.21
 _ZN15BattleExtracterI11BattleSceneE23extractSpectatorMessageERA1_13__va_list_tag@Base 2.0.21
 _ZN15BattleExtracterI11BattleSceneE23extractSubstituteStatusERA1_13__va_list_tag@Base 2.0.21
 _ZN15BattleExtracterI11BattleSceneE25extractStatBoostsAndFieldERA1_13__va_list_tag@Base 2.0.21
 _ZN15BattleExtracterI11BattleSceneE26extractChooseRearrangeTeamERA1_13__va_list_tag@Base 2.0.21
 _ZN15BattleExtracterI11BattleSceneE26extractChooseShiftToCenterERA1_13__va_list_tag@Base 2.0.21
 _ZN15BattleExtracterI11BattleSceneE26extractClassicStatusChangeERA1_13__va_list_tag@Base 2.0.21
 _ZN15BattleExtracterI11BattleSceneE26extractCosmeticFormeChangeERA1_13__va_list_tag@Base 2.0.21
 _ZN15BattleExtracterI11BattleSceneE26extractDefiniteFormeChangeERA1_13__va_list_tag@Base 2.0.21
 _ZN15BattleExtracterI11BattleSceneE27extractAbsoluteStatusChangeERA1_13__va_list_tag@Base 2.0.21
 _ZN15BattleExtracterI11BattleSceneE27extractAlreadyStatusMessageERA1_13__va_list_tag@Base 2.0.21
 _ZN15BattleExtracterI11BattleSceneE9extractKoERA1_13__va_list_tag@Base 2.0.21
 _ZN15BattleExtracterI11BattleSceneEC1Ev@Base 2.0.21
 _ZN15BattleExtracterI11BattleSceneEC2Ev@Base 2.0.21
 _ZN15BattleExtracterI14TestBattleDataE11extractFailERA1_13__va_list_tag@Base 2.0.21
 _ZN15BattleExtracterI14TestBattleDataE11extractHitsERA1_13__va_list_tag@Base 2.0.21
 _ZN15BattleExtracterI14TestBattleDataE11extractMissERA1_13__va_list_tag@Base 2.0.21
 _ZN15BattleExtracterI14TestBattleDataE11extractTurnERA1_13__va_list_tag@Base 2.0.21
 _ZN15BattleExtracterI14TestBattleDataE12entryPoint_vE10BattleEnumRA1_13__va_list_tag@Base 2.0.21
 _ZN15BattleExtracterI14TestBattleDataE12extractAvoidERA1_13__va_list_tag@Base 2.0.21
 _ZN15BattleExtracterI14TestBattleDataE12extractNewHpERA1_13__va_list_tag@Base 2.0.21
 _ZN15BattleExtracterI14TestBattleDataE13extractFlinchERA1_13__va_list_tag@Base 2.0.21
 _ZN15BattleExtracterI14TestBattleDataE13extractRecoilERA1_13__va_list_tag@Base 2.0.21
 _ZN15BattleExtracterI14TestBattleDataE14extractDamagedERA1_13__va_list_tag@Base 2.0.21
 _ZN15BattleExtracterI14TestBattleDataE14extractDrainedERA1_13__va_list_tag@Base 2.0.21
 _ZN15BattleExtracterI14TestBattleDataE14extractSendOutERA1_13__va_list_tag@Base 2.0.21
 _ZN15BattleExtracterI14TestBattleDataE14extractUseItemERA1_13__va_list_tag@Base 2.0.21
 _ZN15BattleExtracterI14TestBattleDataE15extractPPChangeERA1_13__va_list_tag@Base 2.0.21
 _ZN15BattleExtracterI14TestBattleDataE15extractSendBackERA1_13__va_list_tag@Base 2.0.21
 _ZN15BattleExtracterI14TestBattleDataE15extractTierInfoERA1_13__va_list_tag@Base 2.0.21
 _ZN15BattleExtracterI14TestBattleDataE16extractBattleEndERA1_13__va_list_tag@Base 2.0.21
 _ZN15BattleExtracterI14TestBattleDataE16extractClockStopERA1_13__va_list_tag@Base 2.0.21
 _ZN15BattleExtracterI14TestBattleDataE16extractPrintHtmlERA1_13__va_list_tag@Base 2.0.21
 _ZN15BattleExtracterI14TestBattleDataE16extractRatedInfoERA1_13__va_list_tag@Base 2.0.21
 _ZN15BattleExtracterI14TestBattleDataE16extractReconnectERA1_13__va_list_tag@Base 2.0.21
 _ZN15BattleExtracterI14TestBattleDataE16extractUseAttackERA1_13__va_list_tag@Base 2.0.21
 _ZN15BattleExtracterI14TestBattleDataE16extractVariationERA1_13__va_list_tag@Base 2.0.21
 _ZN15BattleExtracterI14TestBattleDataE17extractChooseDrawERA1_13__va_list_tag@Base 2.0.21
 _ZN15BattleExtracterI14TestBattleDataE17extractClockStartERA1_13__va_list_tag@Base 2.0.21
 _ZN15BattleExtracterI14TestBattleDataE17extractDisconnectERA1_13__va_list_tag@Base 2.0.21
 _ZN15BattleExtracterI14TestBattleDataE17extractEndWeatherERA1_13__va_list_tag@Base 2.0.21
 _ZN15BattleExtracterI14TestBattleDataE17extractMoveChangeERA1_13__va_list_tag@Base 2.0.21
 _ZN15BattleExtracterI14TestBattleDataE17extractShiftSpotsERA1_13__va_list_tag@Base 2.0.21
 _ZN15BattleExtracterI14TestBattleDataE17extractStatChangeERA1_13__va_list_tag@Base 2.0.21
 _ZN15BattleExtracterI14TestBattleDataE17extractStatusFeelERA1_13__va_list_tag@Base 2.0.21
 _ZN15BattleExtracterI14TestBattleDataE17extractStatusFreeERA1_13__va_list_tag@Base 2.0.21
 _ZN15BattleExtracterI14TestBattleDataE17extractStatusHurtERA1_13__va_list_tag@Base 2.0.21
 _ZN15BattleExtracterI14TestBattleDataE18extractCriticalHitERA1_13__va_list_tag@Base 2.0.21
 _ZN15BattleExtracterI14TestBattleDataE18extractItemMessageERA1_13__va_list_tag@Base 2.0.21
 _ZN15BattleExtracterI14TestBattleDataE18extractMoveMessageERA1_13__va_list_tag@Base 2.0.21
 _ZN15BattleExtracterI14TestBattleDataE18extractOfferChoiceERA1_13__va_list_tag@Base 2.0.21
 _ZN15BattleExtracterI14TestBattleDataE19extractBlankMessageERA1_13__va_list_tag@Base 2.0.21
 _ZN15BattleExtracterI14TestBattleDataE19extractChooseAttackERA1_13__va_list_tag@Base 2.0.21
 _ZN15BattleExtracterI14TestBattleDataE19extractChooseCancelERA1_13__va_list_tag@Base 2.0.21
 _ZN15BattleExtracterI14TestBattleDataE19extractChooseSwitchERA1_13__va_list_tag@Base 2.0.21
 _ZN15BattleExtracterI14TestBattleDataE19extractDynamicStatsERA1_13__va_list_tag@Base 2.0.21
 _ZN15BattleExtracterI14TestBattleDataE19extractSpriteChangeERA1_13__va_list_tag@Base 2.0.21
 _ZN15BattleExtracterI14TestBattleDataE19extractStartWeatherERA1_13__va_list_tag@Base 2.0.21
 _ZN15BattleExtracterI14TestBattleDataE19extractTempPPChangeERA1_13__va_list_tag@Base 2.0.21
 _ZN15BattleExtracterI14TestBattleDataE20extractClauseMessageERA1_13__va_list_tag@Base 2.0.21
 _ZN15BattleExtracterI14TestBattleDataE20extractEffectivenessERA1_13__va_list_tag@Base 2.0.21
 _ZN15BattleExtracterI14TestBattleDataE20extractPlayerMessageERA1_13__va_list_tag@Base 2.0.21
 _ZN15BattleExtracterI14TestBattleDataE20extractPokemonVanishERA1_13__va_list_tag@Base 2.0.21
 _ZN15BattleExtracterI14TestBattleDataE20extractRearrangeTeamERA1_13__va_list_tag@Base 2.0.21
 _ZN15BattleExtracterI14TestBattleDataE20extractWeatherDamageERA1_13__va_list_tag@Base 2.0.21
 _ZN15BattleExtracterI14TestBattleDataE21extractAbilityMessageERA1_13__va_list_tag@Base 2.0.21
 _ZN15BattleExtracterI14TestBattleDataE21extractSpectatorEnterERA1_13__va_list_tag@Base 2.0.21
 _ZN15BattleExtracterI14TestBattleDataE21extractSpectatorLeaveERA1_13__va_list_tag@Base 2.0.21
 _ZN15BattleExtracterI14TestBattleDataE21extractWeatherMessageERA1_13__va_list_tag@Base 2.0.21
 _ZN15BattleExtracterI14TestBattleDataE22extractChoiceCancelledERA1_13__va_list_tag@Base 2.0.21
 _ZN15BattleExtracterI14TestBattleDataE22extractChoiceSelectionERA1_13__va_list_tag@Base 2.0.21
 _ZN15BattleExtracterI14TestBattleDataE22extractItemCountChangeERA1_13__va_list_tag@Base 2.0.21
 _ZN15BattleExtracterI14TestBattleDataE22extractNoTargetMessageERA1_13__va_list_tag@Base 2.0.21
 _ZN15BattleExtracterI14TestBattleDataE22extractPokemonReappearERA1_13__va_list_tag@Base 2.0.21
 _ZN15BattleExtracterI14TestBattleDataE23extractSpectatorMessageERA1_13__va_list_tag@Base 2.0.21
 _ZN15BattleExtracterI14TestBattleDataE23extractSubstituteStatusERA1_13__va_list_tag@Base 2.0.21
 _ZN15BattleExtracterI14TestBattleDataE25extractStatBoostsAndFieldERA1_13__va_list_tag@Base 2.0.21
 _ZN15BattleExtracterI14TestBattleDataE26extractChooseRearrangeTeamERA1_13__va_list_tag@Base 2.0.21
 _ZN15BattleExtracterI14TestBattleDataE26extractChooseShiftToCenterERA1_13__va_list_tag@Base 2.0.21
 _ZN15BattleExtracterI14TestBattleDataE26extractClassicStatusChangeERA1_13__va_list_tag@Base 2.0.21
 _ZN15BattleExtracterI14TestBattleDataE26extractCosmeticFormeChangeERA1_13__va_list_tag@Base 2.0.21
 _ZN15BattleExtracterI14TestBattleDataE26extractDefiniteFormeChangeERA1_13__va_list_tag@Base 2.0.21
 _ZN15BattleExtracterI14TestBattleDataE27extractAbsoluteStatusChangeERA1_13__va_list_tag@Base 2.0.21
 _ZN15BattleExtracterI14TestBattleDataE27extractAlreadyStatusMessageERA1_13__va_list_tag@Base 2.0.21
 _ZN15BattleExtracterI14TestBattleDataE9extractKoERA1_13__va_list_tag@Base 2.0.21
 _ZN15BattleExtracterI14TestBattleDataEC1Ev@Base 2.0.21
 _ZN15BattleExtracterI14TestBattleDataEC2Ev@Base 2.0.21
 _ZN15BattleExtracterI15BattleClientLogE11extractFailERA1_13__va_list_tag@Base 2.0.21
 _ZN15BattleExtracterI15BattleClientLogE11extractHitsERA1_13__va_list_tag@Base 2.0.21
 _ZN15BattleExtracterI15BattleClientLogE11extractMissERA1_13__va_list_tag@Base 2.0.21
 _ZN15BattleExtracterI15BattleClientLogE11extractTurnERA1_13__va_list_tag@Base 2.0.21
 _ZN15BattleExtracterI15BattleClientLogE12entryPoint_vE10BattleEnumRA1_13__va_list_tag@Base 2.0.21
 _ZN15BattleExtracterI15BattleClientLogE12extractAvoidERA1_13__va_list_tag@Base 2.0.21
 _ZN15BattleExtracterI15BattleClientLogE12extractNewHpERA1_13__va_list_tag@Base 2.0.21
 _ZN15BattleExtracterI15BattleClientLogE13extractFlinchERA1_13__va_list_tag@Base 2.0.21
 _ZN15BattleExtracterI15BattleClientLogE13extractRecoilERA1_13__va_list_tag@Base 2.0.21
 _ZN15BattleExtracterI15BattleClientLogE14extractDamagedERA1_13__va_list_tag@Base 2.0.21
 _ZN15BattleExtracterI15BattleClientLogE14extractDrainedERA1_13__va_list_tag@Base 2.0.21
 _ZN15BattleExtracterI15BattleClientLogE14extractSendOutERA1_13__va_list_tag@Base 2.0.21
 _ZN15BattleExtracterI15BattleClientLogE14extractUseItemERA1_13__va_list_tag@Base 2.0.21
 _ZN15BattleExtracterI15BattleClientLogE15extractPPChangeERA1_13__va_list_tag@Base 2.0.21
 _ZN15BattleExtracterI15BattleClientLogE15extractSendBackERA1_13__va_list_tag@Base 2.0.21
 _ZN15BattleExtracterI15BattleClientLogE15extractTierInfoERA1_13__va_list_tag@Base 2.0.21
 _ZN15BattleExtracterI15BattleClientLogE16extractBattleEndERA1_13__va_list_tag@Base 2.0.21
 _ZN15BattleExtracterI15BattleClientLogE16extractClockStopERA1_13__va_list_tag@Base 2.0.21
 _ZN15BattleExtracterI15BattleClientLogE16extractPrintHtmlERA1_13__va_list_tag@Base 2.0.21
 _ZN15BattleExtracterI15BattleClientLogE16extractRatedInfoERA1_13__va_list_tag@Base 2.0.21
 _ZN15BattleExtracterI15BattleClientLogE16extractReconnectERA1_13__va_list_tag@Base 2.0.21
 _ZN15BattleExtracterI15BattleClientLogE16extractUseAttackERA1_13__va_list_tag@Base 2.0.21
 _ZN15BattleExtracterI15BattleClientLogE16extractVariationERA1_13__va_list_tag@Base 2.0.21
 _ZN15BattleExtracterI15BattleClientLogE17extractChooseDrawERA1_13__va_list_tag@Base 2.0.21
 _ZN15BattleExtracterI15BattleClientLogE17extractClockStartERA1_13__va_list_tag@Base 2.0.21
 _ZN15BattleExtracterI15BattleClientLogE17extractDisconnectERA1_13__va_list_tag@Base 2.0.21
 _ZN15BattleExtracterI15BattleClientLogE17extractEndWeatherERA1_13__va_list_tag@Base 2.0.21
 _ZN15BattleExtracterI15BattleClientLogE17extractMoveChangeERA1_13__va_list_tag@Base 2.0.21
 _ZN15BattleExtracterI15BattleClientLogE17extractShiftSpotsERA1_13__va_list_tag@Base 2.0.21
 _ZN15BattleExtracterI15BattleClientLogE17extractStatChangeERA1_13__va_list_tag@Base 2.0.21
 _ZN15BattleExtracterI15BattleClientLogE17extractStatusFeelERA1_13__va_list_tag@Base 2.0.21
 _ZN15BattleExtracterI15BattleClientLogE17extractStatusFreeERA1_13__va_list_tag@Base 2.0.21
 _ZN15BattleExtracterI15BattleClientLogE17extractStatusHurtERA1_13__va_list_tag@Base 2.0.21
 _ZN15BattleExtracterI15BattleClientLogE18extractCriticalHitERA1_13__va_list_tag@Base 2.0.21
 _ZN15BattleExtracterI15BattleClientLogE18extractItemMessageERA1_13__va_list_tag@Base 2.0.21
 _ZN15BattleExtracterI15BattleClientLogE18extractMoveMessageERA1_13__va_list_tag@Base 2.0.21
 _ZN15BattleExtracterI15BattleClientLogE18extractOfferChoiceERA1_13__va_list_tag@Base 2.0.21
 _ZN15BattleExtracterI15BattleClientLogE19extractBlankMessageERA1_13__va_list_tag@Base 2.0.21
 _ZN15BattleExtracterI15BattleClientLogE19extractChooseAttackERA1_13__va_list_tag@Base 2.0.21
 _ZN15BattleExtracterI15BattleClientLogE19extractChooseCancelERA1_13__va_list_tag@Base 2.0.21
 _ZN15BattleExtracterI15BattleClientLogE19extractChooseSwitchERA1_13__va_list_tag@Base 2.0.21
 _ZN15BattleExtracterI15BattleClientLogE19extractDynamicStatsERA1_13__va_list_tag@Base 2.0.21
 _ZN15BattleExtracterI15BattleClientLogE19extractSpriteChangeERA1_13__va_list_tag@Base 2.0.21
 _ZN15BattleExtracterI15BattleClientLogE19extractStartWeatherERA1_13__va_list_tag@Base 2.0.21
 _ZN15BattleExtracterI15BattleClientLogE19extractTempPPChangeERA1_13__va_list_tag@Base 2.0.21
 _ZN15BattleExtracterI15BattleClientLogE20extractClauseMessageERA1_13__va_list_tag@Base 2.0.21
 _ZN15BattleExtracterI15BattleClientLogE20extractEffectivenessERA1_13__va_list_tag@Base 2.0.21
 _ZN15BattleExtracterI15BattleClientLogE20extractPlayerMessageERA1_13__va_list_tag@Base 2.0.21
 _ZN15BattleExtracterI15BattleClientLogE20extractPokemonVanishERA1_13__va_list_tag@Base 2.0.21
 _ZN15BattleExtracterI15BattleClientLogE20extractRearrangeTeamERA1_13__va_list_tag@Base 2.0.21
 _ZN15BattleExtracterI15BattleClientLogE20extractWeatherDamageERA1_13__va_list_tag@Base 2.0.21
 _ZN15BattleExtracterI15BattleClientLogE21extractAbilityMessageERA1_13__va_list_tag@Base 2.0.21
 _ZN15BattleExtracterI15BattleClientLogE21extractSpectatorEnterERA1_13__va_list_tag@Base 2.0.21
 _ZN15BattleExtracterI15BattleClientLogE21extractSpectatorLeaveERA1_13__va_list_tag@Base 2.0.21
 _ZN15BattleExtracterI15BattleClientLogE21extractWeatherMessageERA1_13__va_list_tag@Base 2.0.21
 _ZN15BattleExtracterI15BattleClientLogE22extractChoiceCancelledERA1_13__va_list_tag@Base 2.0.21
 _ZN15BattleExtracterI15BattleClientLogE22extractChoiceSelectionERA1_13__va_list_tag@Base 2.0.21
 _ZN15BattleExtracterI15BattleClientLogE22extractItemCountChangeERA1_13__va_list_tag@Base 2.0.21
 _ZN15BattleExtracterI15BattleClientLogE22extractNoTargetMessageERA1_13__va_list_tag@Base 2.0.21
 _ZN15BattleExtracterI15BattleClientLogE22extractPokemonReappearERA1_13__va_list_tag@Base 2.0.21
 _ZN15BattleExtracterI15BattleClientLogE23extractSpectatorMessageERA1_13__va_list_tag@Base 2.0.21
 _ZN15BattleExtracterI15BattleClientLogE23extractSubstituteStatusERA1_13__va_list_tag@Base 2.0.21
 _ZN15BattleExtracterI15BattleClientLogE25extractStatBoostsAndFieldERA1_13__va_list_tag@Base 2.0.21
 _ZN15BattleExtracterI15BattleClientLogE26extractChooseRearrangeTeamERA1_13__va_list_tag@Base 2.0.21
 _ZN15BattleExtracterI15BattleClientLogE26extractChooseShiftToCenterERA1_13__va_list_tag@Base 2.0.21
 _ZN15BattleExtracterI15BattleClientLogE26extractClassicStatusChangeERA1_13__va_list_tag@Base 2.0.21
 _ZN15BattleExtracterI15BattleClientLogE26extractCosmeticFormeChangeERA1_13__va_list_tag@Base 2.0.21
 _ZN15BattleExtracterI15BattleClientLogE26extractDefiniteFormeChangeERA1_13__va_list_tag@Base 2.0.21
 _ZN15BattleExtracterI15BattleClientLogE27extractAbsoluteStatusChangeERA1_13__va_list_tag@Base 2.0.21
 _ZN15BattleExtracterI15BattleClientLogE27extractAlreadyStatusMessageERA1_13__va_list_tag@Base 2.0.21
 _ZN15BattleExtracterI15BattleClientLogE9extractKoERA1_13__va_list_tag@Base 2.0.21
 _ZN15BattleExtracterI15BattleClientLogEC1Ev@Base 2.0.21
 _ZN15BattleExtracterI15BattleClientLogEC2Ev@Base 2.0.21
 _ZN15BattleExtracterI18RegularBattleSceneE11extractFailERA1_13__va_list_tag@Base 2.0.21
 _ZN15BattleExtracterI18RegularBattleSceneE11extractHitsERA1_13__va_list_tag@Base 2.0.21
 _ZN15BattleExtracterI18RegularBattleSceneE11extractMissERA1_13__va_list_tag@Base 2.0.21
 _ZN15BattleExtracterI18RegularBattleSceneE11extractTurnERA1_13__va_list_tag@Base 2.0.21
 _ZN15BattleExtracterI18RegularBattleSceneE12entryPoint_vE10BattleEnumRA1_13__va_list_tag@Base 2.0.21
 _ZN15BattleExtracterI18RegularBattleSceneE12extractAvoidERA1_13__va_list_tag@Base 2.0.21
 _ZN15BattleExtracterI18RegularBattleSceneE12extractNewHpERA1_13__va_list_tag@Base 2.0.21
 _ZN15BattleExtracterI18RegularBattleSceneE13extractFlinchERA1_13__va_list_tag@Base 2.0.21
 _ZN15BattleExtracterI18RegularBattleSceneE13extractRecoilERA1_13__va_list_tag@Base 2.0.21
 _ZN15BattleExtracterI18RegularBattleSceneE14extractDamagedERA1_13__va_list_tag@Base 2.0.21
 _ZN15BattleExtracterI18RegularBattleSceneE14extractDrainedERA1_13__va_list_tag@Base 2.0.21
 _ZN15BattleExtracterI18RegularBattleSceneE14extractSendOutERA1_13__va_list_tag@Base 2.0.21
 _ZN15BattleExtracterI18RegularBattleSceneE14extractUseItemERA1_13__va_list_tag@Base 2.0.21
 _ZN15BattleExtracterI18RegularBattleSceneE15extractPPChangeERA1_13__va_list_tag@Base 2.0.21
 _ZN15BattleExtracterI18RegularBattleSceneE15extractSendBackERA1_13__va_list_tag@Base 2.0.21
 _ZN15BattleExtracterI18RegularBattleSceneE15extractTierInfoERA1_13__va_list_tag@Base 2.0.21
 _ZN15BattleExtracterI18RegularBattleSceneE16extractBattleEndERA1_13__va_list_tag@Base 2.0.21
 _ZN15BattleExtracterI18RegularBattleSceneE16extractClockStopERA1_13__va_list_tag@Base 2.0.21
 _ZN15BattleExtracterI18RegularBattleSceneE16extractPrintHtmlERA1_13__va_list_tag@Base 2.0.21
 _ZN15BattleExtracterI18RegularBattleSceneE16extractRatedInfoERA1_13__va_list_tag@Base 2.0.21
 _ZN15BattleExtracterI18RegularBattleSceneE16extractReconnectERA1_13__va_list_tag@Base 2.0.21
 _ZN15BattleExtracterI18RegularBattleSceneE16extractUseAttackERA1_13__va_list_tag@Base 2.0.21
 _ZN15BattleExtracterI18RegularBattleSceneE16extractVariationERA1_13__va_list_tag@Base 2.0.21
 _ZN15BattleExtracterI18RegularBattleSceneE17extractChooseDrawERA1_13__va_list_tag@Base 2.0.21
 _ZN15BattleExtracterI18RegularBattleSceneE17extractClockStartERA1_13__va_list_tag@Base 2.0.21
 _ZN15BattleExtracterI18RegularBattleSceneE17extractDisconnectERA1_13__va_list_tag@Base 2.0.21
 _ZN15BattleExtracterI18RegularBattleSceneE17extractEndWeatherERA1_13__va_list_tag@Base 2.0.21
 _ZN15BattleExtracterI18RegularBattleSceneE17extractMoveChangeERA1_13__va_list_tag@Base 2.0.21
 _ZN15BattleExtracterI18RegularBattleSceneE17extractShiftSpotsERA1_13__va_list_tag@Base 2.0.21
 _ZN15BattleExtracterI18RegularBattleSceneE17extractStatChangeERA1_13__va_list_tag@Base 2.0.21
 _ZN15BattleExtracterI18RegularBattleSceneE17extractStatusFeelERA1_13__va_list_tag@Base 2.0.21
 _ZN15BattleExtracterI18RegularBattleSceneE17extractStatusFreeERA1_13__va_list_tag@Base 2.0.21
 _ZN15BattleExtracterI18RegularBattleSceneE17extractStatusHurtERA1_13__va_list_tag@Base 2.0.21
 _ZN15BattleExtracterI18RegularBattleSceneE18extractCriticalHitERA1_13__va_list_tag@Base 2.0.21
 _ZN15BattleExtracterI18RegularBattleSceneE18extractItemMessageERA1_13__va_list_tag@Base 2.0.21
 _ZN15BattleExtracterI18RegularBattleSceneE18extractMoveMessageERA1_13__va_list_tag@Base 2.0.21
 _ZN15BattleExtracterI18RegularBattleSceneE18extractOfferChoiceERA1_13__va_list_tag@Base 2.0.21
 _ZN15BattleExtracterI18RegularBattleSceneE19extractBlankMessageERA1_13__va_list_tag@Base 2.0.21
 _ZN15BattleExtracterI18RegularBattleSceneE19extractChooseAttackERA1_13__va_list_tag@Base 2.0.21
 _ZN15BattleExtracterI18RegularBattleSceneE19extractChooseCancelERA1_13__va_list_tag@Base 2.0.21
 _ZN15BattleExtracterI18RegularBattleSceneE19extractChooseSwitchERA1_13__va_list_tag@Base 2.0.21
 _ZN15BattleExtracterI18RegularBattleSceneE19extractDynamicStatsERA1_13__va_list_tag@Base 2.0.21
 _ZN15BattleExtracterI18RegularBattleSceneE19extractSpriteChangeERA1_13__va_list_tag@Base 2.0.21
 _ZN15BattleExtracterI18RegularBattleSceneE19extractStartWeatherERA1_13__va_list_tag@Base 2.0.21
 _ZN15BattleExtracterI18RegularBattleSceneE19extractTempPPChangeERA1_13__va_list_tag@Base 2.0.21
 _ZN15BattleExtracterI18RegularBattleSceneE20extractClauseMessageERA1_13__va_list_tag@Base 2.0.21
 _ZN15BattleExtracterI18RegularBattleSceneE20extractEffectivenessERA1_13__va_list_tag@Base 2.0.21
 _ZN15BattleExtracterI18RegularBattleSceneE20extractPlayerMessageERA1_13__va_list_tag@Base 2.0.21
 _ZN15BattleExtracterI18RegularBattleSceneE20extractPokemonVanishERA1_13__va_list_tag@Base 2.0.21
 _ZN15BattleExtracterI18RegularBattleSceneE20extractRearrangeTeamERA1_13__va_list_tag@Base 2.0.21
 _ZN15BattleExtracterI18RegularBattleSceneE20extractWeatherDamageERA1_13__va_list_tag@Base 2.0.21
 _ZN15BattleExtracterI18RegularBattleSceneE21extractAbilityMessageERA1_13__va_list_tag@Base 2.0.21
 _ZN15BattleExtracterI18RegularBattleSceneE21extractSpectatorEnterERA1_13__va_list_tag@Base 2.0.21
 _ZN15BattleExtracterI18RegularBattleSceneE21extractSpectatorLeaveERA1_13__va_list_tag@Base 2.0.21
 _ZN15BattleExtracterI18RegularBattleSceneE21extractWeatherMessageERA1_13__va_list_tag@Base 2.0.21
 _ZN15BattleExtracterI18RegularBattleSceneE22extractChoiceCancelledERA1_13__va_list_tag@Base 2.0.21
 _ZN15BattleExtracterI18RegularBattleSceneE22extractChoiceSelectionERA1_13__va_list_tag@Base 2.0.21
 _ZN15BattleExtracterI18RegularBattleSceneE22extractItemCountChangeERA1_13__va_list_tag@Base 2.0.21
 _ZN15BattleExtracterI18RegularBattleSceneE22extractNoTargetMessageERA1_13__va_list_tag@Base 2.0.21
 _ZN15BattleExtracterI18RegularBattleSceneE22extractPokemonReappearERA1_13__va_list_tag@Base 2.0.21
 _ZN15BattleExtracterI18RegularBattleSceneE23extractSpectatorMessageERA1_13__va_list_tag@Base 2.0.21
 _ZN15BattleExtracterI18RegularBattleSceneE23extractSubstituteStatusERA1_13__va_list_tag@Base 2.0.21
 _ZN15BattleExtracterI18RegularBattleSceneE25extractStatBoostsAndFieldERA1_13__va_list_tag@Base 2.0.21
 _ZN15BattleExtracterI18RegularBattleSceneE26extractChooseRearrangeTeamERA1_13__va_list_tag@Base 2.0.21
 _ZN15BattleExtracterI18RegularBattleSceneE26extractChooseShiftToCenterERA1_13__va_list_tag@Base 2.0.21
 _ZN15BattleExtracterI18RegularBattleSceneE26extractClassicStatusChangeERA1_13__va_list_tag@Base 2.0.21
 _ZN15BattleExtracterI18RegularBattleSceneE26extractCosmeticFormeChangeERA1_13__va_list_tag@Base 2.0.21
 _ZN15BattleExtracterI18RegularBattleSceneE26extractDefiniteFormeChangeERA1_13__va_list_tag@Base 2.0.21
 _ZN15BattleExtracterI18RegularBattleSceneE27extractAbsoluteStatusChangeERA1_13__va_list_tag@Base 2.0.21
 _ZN15BattleExtracterI18RegularBattleSceneE27extractAlreadyStatusMessageERA1_13__va_list_tag@Base 2.0.21
 _ZN15BattleExtracterI18RegularBattleSceneE9extractKoERA1_13__va_list_tag@Base 2.0.21
 _ZN15BattleExtracterI18RegularBattleSceneEC1Ev@Base 2.0.21
 _ZN15BattleExtracterI18RegularBattleSceneEC2Ev@Base 2.0.21
 _ZN16AuxPokeDataProxy10onSendBackEv@Base 2.0.21
 _ZN16AuxPokeDataProxy10resetStatsEv@Base 2.0.21
 _ZN16AuxPokeDataProxy11changeFormeEi@Base 2.0.21
 _ZN16AuxPokeDataProxy11qt_metacallEN11QMetaObject4CallEiPPv@Base 2.0.21
 _ZN16AuxPokeDataProxy11qt_metacastEPKc@Base 2.0.21
 _ZN16AuxPokeDataProxy13setPlayerPokeEb@Base 2.0.21
 _ZN16AuxPokeDataProxy14pokemonChangedEv@Base 2.0.21
 _ZN16AuxPokeDataProxy14showingChangedEv@Base 2.0.21
 _ZN16AuxPokeDataProxy15resetStatBoostsEv@Base 2.0.21
 _ZN16AuxPokeDataProxy16staticMetaObjectE@Base 2.0.21
 _ZN16AuxPokeDataProxy17onTheFieldChangedEv@Base 2.0.21
 _ZN16AuxPokeDataProxy17substituteChangedEv@Base 2.0.21
 _ZN16AuxPokeDataProxy17updateBoostedStatEi@Base 2.0.21
 _ZN16AuxPokeDataProxy22alternateSpriteChangedEv@Base 2.0.21
 _ZN16AuxPokeDataProxy4statEi@Base 2.0.21
 _ZN16AuxPokeDataProxy5type1Ev@Base 2.0.21
 _ZN16AuxPokeDataProxy5type2Ev@Base 2.0.21
 _ZN16AuxPokeDataProxy6statUpEii@Base 2.0.21
 _ZN16AuxPokeDataProxy7maxStatEi@Base 2.0.21
 _ZN16AuxPokeDataProxy7minStatEi@Base 2.0.21
 _ZN16AuxPokeDataProxy7setPokeEP9PokeProxy@Base 2.0.21
 _ZN16AuxPokeDataProxy7setStatEii@Base 2.0.21
 _ZN16AuxPokeDataProxy8setBoostEii@Base 2.0.21
 _ZN16AuxPokeDataProxy8statDownEii@Base 2.0.21
 _ZN16AuxPokeDataProxy9boostStatEii@Base 2.0.21
 _ZN16AuxPokeDataProxy9onSendOutEP17ShallowBattlePoke@Base 2.0.21
 _ZN16AuxPokeDataProxy9statBoostEi@Base 2.0.21
 _ZN16AuxPokeDataProxyC1Ev@Base 2.0.21
 _ZN16AuxPokeDataProxyC2Ev@Base 2.0.21
 _ZN16AuxPokeDataProxyD0Ev@Base 2.0.21
 _ZN16AuxPokeDataProxyD1Ev@Base 2.0.21
 _ZN16AuxPokeDataProxyD2Ev@Base 2.0.21
 _ZN16BattleSceneProxy11qt_metacallEN11QMetaObject4CallEiPPv@Base 2.0.21
 _ZN16BattleSceneProxy11qt_metacastEPKc@Base 2.0.21
 _ZN16BattleSceneProxy16staticMetaObjectE@Base 2.0.21
 _ZN16BattleSceneProxy4dataEv@Base 2.0.21
 _ZN16BattleSceneProxy8getSceneEv@Base 2.0.21
 _ZN16BattleSceneProxyC1EP11BattleScene@Base 2.0.21
 _ZN16BattleSceneProxyC2EP11BattleScene@Base 2.0.21
 _ZN16BattleSceneProxyD0Ev@Base 2.0.21
 _ZN16BattleSceneProxyD1Ev@Base 2.0.21
 _ZN16BattleSceneProxyD2Ev@Base 2.0.21
 _ZN16MoveInfoAccessor11qt_metacallEN11QMetaObject4CallEiPPv@Base 2.0.21
 _ZN16MoveInfoAccessor11qt_metacastEPKc@Base 2.0.21
 _ZN16MoveInfoAccessor16staticMetaObjectE@Base 2.0.21
 _ZN16MoveInfoAccessor4nameEi@Base 2.0.21
 _ZN16MoveInfoAccessor4typeEi@Base 2.0.21
 _ZN16MoveInfoAccessor5powerEi@Base 2.0.21
 _ZN16MoveInfoAccessorC1EP7QObjectN7Pokemon3genE@Base 2.0.21
 _ZN16MoveInfoAccessorC2EP7QObjectN7Pokemon3genE@Base 2.0.21
 _ZN16MoveInfoAccessorD0Ev@Base 2.0.21
 _ZN16MoveInfoAccessorD1Ev@Base 2.0.21
 _ZN16MoveInfoAccessorD2Ev@Base 2.0.21
 _ZN18BattleDefaultTheme10statusIconEi@Base 2.0.21
 _ZN18BattleDefaultTheme11qt_metacallEN11QMetaObject4CallEiPPv@Base 2.0.21
 _ZN18BattleDefaultTheme11qt_metacastEPKc@Base 2.0.21
 _ZN18BattleDefaultTheme11statusColorEi@Base 2.0.21
 _ZN18BattleDefaultTheme13categoryColorEi@Base 2.0.21
 _ZN18BattleDefaultTheme13trainerSpriteEi@Base 2.0.21
 _ZN18BattleDefaultTheme16battleStatusIconEi@Base 2.0.21
 _ZN18BattleDefaultTheme16staticMetaObjectE@Base 2.0.21
 _ZN18BattleDefaultTheme19battleGenderPictureEi@Base 2.0.21
 _ZN18BattleDefaultTheme3picERK7QString@Base 2.0.21
 _ZN18BattleDefaultTheme6spriteERK7QString@Base 2.0.21
 _ZN18BattleDefaultTheme9typeColorEi@Base 2.0.21
 _ZN18BattleDefaultThemeD0Ev@Base 2.0.21
 _ZN18BattleDefaultThemeD1Ev@Base 2.0.21
 _ZN18BattleDefaultThemeD2Ev@Base 2.0.21
 _ZN18FlowCommandManagerI10BattleEnumE5pauseEi@Base 2.0.21
 _ZN18FlowCommandManagerI10BattleEnumE6outputILS0_30EIiibEEEvDpT0_@Base 2.0.21
 _ZN18FlowCommandManagerI10BattleEnumE6outputILS0_37EIEEEvDpT0_@Base 2.0.21
 _ZN18FlowCommandManagerI10BattleEnumE6pausedEv@Base 2.0.21
 _ZN18FlowCommandManagerI10BattleEnumE7unpauseEi@Base 2.0.21
 _ZN18FlowCommandManagerI10BattleEnumED0Ev@Base 2.0.21
 _ZN18FlowCommandManagerI10BattleEnumED1Ev@Base 2.0.21
 _ZN18FlowCommandManagerI10BattleEnumED2Ev@Base 2.0.21
 _ZN18ProxyDataContainer10reloadTeamEi@Base 2.0.21
 _ZN18ProxyDataContainer11qt_metacallEN11QMetaObject4CallEiPPv@Base 2.0.21
 _ZN18ProxyDataContainer11qt_metacastEPKc@Base 2.0.21
 _ZN18ProxyDataContainer16staticMetaObjectE@Base 2.0.21
 _ZN18ProxyDataContainerC1EPK19BattleConfiguration@Base 2.0.21
 _ZN18ProxyDataContainerC2EPK19BattleConfiguration@Base 2.0.21
 _ZN18ProxyDataContainerD0Ev@Base 2.0.21
 _ZN18ProxyDataContainerD1Ev@Base 2.0.21
 _ZN18ProxyDataContainerD2Ev@Base 2.0.21
 _ZN18RegularBattleScene10attackUsedEii@Base 2.0.21
 _ZN18RegularBattleScene10onHpChangeEii@Base 2.0.21
 _ZN18RegularBattleScene10updateBallEii@Base 2.0.21
 _ZN18RegularBattleScene10updatePokeEi@Base 2.0.21
 _ZN18RegularBattleScene11onClockStopEii@Base 2.0.21
 _ZN18RegularBattleScene11onUseAttackEiib@Base 2.0.21
 _ZN18RegularBattleScene11qt_metacallEN11QMetaObject4CallEiPPv@Base 2.0.21
 _ZN18RegularBattleScene11qt_metacastEPKc@Base 2.0.21
 _ZN18RegularBattleScene12animateHpBarEv@Base 2.0.21
 _ZN18RegularBattleScene12getDataProxyEv@Base 2.0.21
 _ZN18RegularBattleScene12onClockStartEii@Base 2.0.21
 _ZN18RegularBattleScene12onShiftSpotsEiiib@Base 2.0.21
 _ZN18RegularBattleScene12printMessageERK7QString@Base 2.0.21
 _ZN18RegularBattleScene12updateTimersEv@Base 2.0.21
 _ZN18RegularBattleScene13changeBarModeEv@Base 2.0.21
 _ZN18RegularBattleScene13updateToolTipEi@Base 2.0.21
 _ZN18RegularBattleScene16createTeamLayoutEPP6QLabel@Base 2.0.21
 _ZN18RegularBattleScene16staticMetaObjectE@Base 2.0.21
 _ZN18RegularBattleScene16updateBallStatusEii@Base 2.0.21
 _ZN18RegularBattleScene17createHPBarLayoutEi@Base 2.0.21
 _ZN18RegularBattleScene19createFullBarLayoutEii@Base 2.0.21
 _ZN18RegularBattleScene23onPokeballStatusChangedEiii@Base 2.0.21
 _ZN18RegularBattleScene3GuiD1Ev@Base 2.0.21
 _ZN18RegularBattleScene3GuiD2Ev@Base 2.0.21
 _ZN18RegularBattleScene4InfoC1Ei@Base 2.0.21
 _ZN18RegularBattleScene4InfoC2Ei@Base 2.0.21
 _ZN18RegularBattleScene4InfoD1Ev@Base 2.0.21
 _ZN18RegularBattleScene4InfoD2Ev@Base 2.0.21
 _ZN18RegularBattleScene5pauseEv@Base 2.0.21
 _ZN18RegularBattleScene6healthEi@Base 2.0.21
 _ZN18RegularBattleScene7playCryEi@Base 2.0.21
 _ZN18RegularBattleScene7unpauseEv@Base 2.0.21
 _ZN18RegularBattleScene8setupGuiEv@Base 2.0.21
 _ZN18RegularBattleScene8updateHpEii@Base 2.0.21
 _ZN18RegularBattleSceneC1EP18AdvancedBattleDataP18BattleDefaultThemeb@Base 2.0.21
 _ZN18RegularBattleSceneC2EP18AdvancedBattleDataP18BattleDefaultThemeb@Base 2.0.21
 _ZN18RegularBattleSceneD0Ev@Base 2.0.21
 _ZN18RegularBattleSceneD1Ev@Base 2.0.21
 _ZN18RegularBattleSceneD2Ev@Base 2.0.21
 _ZN19PokemonInfoAccessor11getInstanceEv@Base 2.0.21
 _ZN19PokemonInfoAccessor11qt_metacallEN11QMetaObject4CallEiPPv@Base 2.0.21
 _ZN19PokemonInfoAccessor11qt_metacastEPKc@Base 2.0.21
 _ZN19PokemonInfoAccessor13requestPixmapERK7QStringP5QSizeRKS3_@Base 2.0.21
 _ZN19PokemonInfoAccessor16staticMetaObjectE@Base 2.0.21
 _ZN19PokemonInfoAccessor9mInstanceE@Base 2.0.21
 _ZN19PokemonInfoAccessorD0Ev@Base 2.0.21
 _ZN19PokemonInfoAccessorD1Ev@Base 2.0.21
 _ZN19PokemonInfoAccessorD2Ev@Base 2.0.21
 _ZN19QDeclarativePrivate10createIntoI10FieldProxyEEvPv@Base 2.0.21
 _ZN19QDeclarativePrivate10createIntoI11BattleSceneEEvPv@Base 2.0.21
 _ZN19QDeclarativePrivate10createIntoI16AuxPokeDataProxyEEvPv@Base 2.0.21
 _ZN19QDeclarativePrivate10createIntoI16MoveInfoAccessorEEvPv@Base 2.0.21
 _ZN19QDeclarativePrivate10createIntoI18BattleDefaultThemeEEvPv@Base 2.0.21
 _ZN19QDeclarativePrivate10createIntoI18ProxyDataContainerEEvPv@Base 2.0.21
 _ZN19QDeclarativePrivate10createIntoI9MoveProxyEEvPv@Base 2.0.21
 _ZN19QDeclarativePrivate10createIntoI9PokeProxyEEvPv@Base 2.0.21
 _ZN19QDeclarativePrivate10createIntoI9TeamProxyEEvPv@Base 2.0.21
 _ZN19QDeclarativePrivate10createIntoI9ZoneProxyEEvPv@Base 2.0.21
 _ZN19QDeclarativePrivate19QDeclarativeElementI10FieldProxyED0Ev@Base 2.0.21
 _ZN19QDeclarativePrivate19QDeclarativeElementI10FieldProxyED1Ev@Base 2.0.21
 _ZN19QDeclarativePrivate19QDeclarativeElementI10FieldProxyED2Ev@Base 2.0.21
 _ZN19QDeclarativePrivate19QDeclarativeElementI11BattleSceneED0Ev@Base 2.0.21
 _ZN19QDeclarativePrivate19QDeclarativeElementI11BattleSceneED1Ev@Base 2.0.21
 _ZN19QDeclarativePrivate19QDeclarativeElementI11BattleSceneED2Ev@Base 2.0.21
 _ZN19QDeclarativePrivate19QDeclarativeElementI16AuxPokeDataProxyED0Ev@Base 2.0.21
 _ZN19QDeclarativePrivate19QDeclarativeElementI16AuxPokeDataProxyED1Ev@Base 2.0.21
 _ZN19QDeclarativePrivate19QDeclarativeElementI16AuxPokeDataProxyED2Ev@Base 2.0.21
 _ZN19QDeclarativePrivate19QDeclarativeElementI16MoveInfoAccessorED0Ev@Base 2.0.21
 _ZN19QDeclarativePrivate19QDeclarativeElementI16MoveInfoAccessorED1Ev@Base 2.0.21
 _ZN19QDeclarativePrivate19QDeclarativeElementI16MoveInfoAccessorED2Ev@Base 2.0.21
 _ZN19QDeclarativePrivate19QDeclarativeElementI18BattleDefaultThemeED0Ev@Base 2.0.21
 _ZN19QDeclarativePrivate19QDeclarativeElementI18BattleDefaultThemeED1Ev@Base 2.0.21
 _ZN19QDeclarativePrivate19QDeclarativeElementI18BattleDefaultThemeED2Ev@Base 2.0.21
 _ZN19QDeclarativePrivate19QDeclarativeElementI18ProxyDataContainerED0Ev@Base 2.0.21
 _ZN19QDeclarativePrivate19QDeclarativeElementI18ProxyDataContainerED1Ev@Base 2.0.21
 _ZN19QDeclarativePrivate19QDeclarativeElementI18ProxyDataContainerED2Ev@Base 2.0.21
 _ZN19QDeclarativePrivate19QDeclarativeElementI9MoveProxyED0Ev@Base 2.0.21
 _ZN19QDeclarativePrivate19QDeclarativeElementI9MoveProxyED1Ev@Base 2.0.21
 _ZN19QDeclarativePrivate19QDeclarativeElementI9MoveProxyED2Ev@Base 2.0.21
 _ZN19QDeclarativePrivate19QDeclarativeElementI9PokeProxyED0Ev@Base 2.0.21
 _ZN19QDeclarativePrivate19QDeclarativeElementI9PokeProxyED1Ev@Base 2.0.21
 _ZN19QDeclarativePrivate19QDeclarativeElementI9PokeProxyED2Ev@Base 2.0.21
 _ZN19QDeclarativePrivate19QDeclarativeElementI9TeamProxyED0Ev@Base 2.0.21
 _ZN19QDeclarativePrivate19QDeclarativeElementI9TeamProxyED1Ev@Base 2.0.21
 _ZN19QDeclarativePrivate19QDeclarativeElementI9TeamProxyED2Ev@Base 2.0.21
 _ZN19QDeclarativePrivate19QDeclarativeElementI9ZoneProxyED0Ev@Base 2.0.21
 _ZN19QDeclarativePrivate19QDeclarativeElementI9ZoneProxyED1Ev@Base 2.0.21
 _ZN19QDeclarativePrivate19QDeclarativeElementI9ZoneProxyED2Ev@Base 2.0.21
 _ZN20BattleCommandManagerI11BattleInput11CommandFlowI10BattleEnumS0_E20BattleCommandInvokerIS0_EED0Ev@Base 2.0.21
 _ZN20BattleCommandManagerI11BattleInput11CommandFlowI10BattleEnumS0_E20BattleCommandInvokerIS0_EED1Ev@Base 2.0.21
 _ZN20BattleCommandManagerI11BattleInput11CommandFlowI10BattleEnumS0_E20BattleCommandInvokerIS0_EED2Ev@Base 2.0.21
 _ZN20BattleCommandManagerI11BattleScene15BattleSceneFlowI10BattleEnumS0_E20BattleCommandInvokerIS0_EED0Ev@Base 2.0.21
 _ZN20BattleCommandManagerI11BattleScene15BattleSceneFlowI10BattleEnumS0_E20BattleCommandInvokerIS0_EED1Ev@Base 2.0.21
 _ZN20BattleCommandManagerI11BattleScene15BattleSceneFlowI10BattleEnumS0_E20BattleCommandInvokerIS0_EED2Ev@Base 2.0.21
 _ZN20BattleCommandManagerI14TestBattleData11CommandFlowI10BattleEnumS0_E20BattleCommandInvokerIS0_EED0Ev@Base 2.0.21
 _ZN20BattleCommandManagerI14TestBattleData11CommandFlowI10BattleEnumS0_E20BattleCommandInvokerIS0_EED1Ev@Base 2.0.21
 _ZN20BattleCommandManagerI14TestBattleData11CommandFlowI10BattleEnumS0_E20BattleCommandInvokerIS0_EED2Ev@Base 2.0.21
 _ZN20BattleCommandManagerI15BattleClientLog11CommandFlowI10BattleEnumS0_E20BattleCommandInvokerIS0_EED0Ev@Base 2.0.21
 _ZN20BattleCommandManagerI15BattleClientLog11CommandFlowI10BattleEnumS0_E20BattleCommandInvokerIS0_EED1Ev@Base 2.0.21
 _ZN20BattleCommandManagerI15BattleClientLog11CommandFlowI10BattleEnumS0_E20BattleCommandInvokerIS0_EED2Ev@Base 2.0.21
 _ZN20BattleCommandManagerI18RegularBattleScene11CommandFlowI10BattleEnumS0_E20BattleCommandInvokerIS0_EED0Ev@Base 2.0.21
 _ZN20BattleCommandManagerI18RegularBattleScene11CommandFlowI10BattleEnumS0_E20BattleCommandInvokerIS0_EED1Ev@Base 2.0.21
 _ZN20BattleCommandManagerI18RegularBattleScene11CommandFlowI10BattleEnumS0_E20BattleCommandInvokerIS0_EED2Ev@Base 2.0.21
 _ZN22AbstractCommandManagerI10BattleEnumE10entryPointES0_z@Base 2.0.21
 _ZN22AbstractCommandManagerI10BattleEnumED0Ev@Base 2.0.21
 _ZN22AbstractCommandManagerI10BattleEnumED1Ev@Base 2.0.21
 _ZN22AbstractCommandManagerI10BattleEnumED2Ev@Base 2.0.21
 _ZN4QMapI7QString8QVariantE11node_createEP8QMapDataPPNS3_4NodeERKS0_RKS1_@Base 2.0.21
 _ZN4QMapI7QString8QVariantE13detach_helperEv@Base 2.0.21
 _ZN4QMapI7QString8QVariantED1Ev@Base 2.0.21
 _ZN4QMapI7QString8QVariantED2Ev@Base 2.0.21
 _ZN5QHashI10BattleEnumM15BattleExtracterI11BattleInputEFvRA1_13__va_list_tagEE11deleteNode2EPN9QHashData4NodeE@Base 2.0.21
 _ZN5QHashI10BattleEnumM15BattleExtracterI11BattleInputEFvRA1_13__va_list_tagEE13duplicateNodeEPN9QHashData4NodeEPv@Base 2.0.21
 _ZN5QHashI10BattleEnumM15BattleExtracterI11BattleInputEFvRA1_13__va_list_tagEE6insertERKS0_RKS8_@Base 2.0.21
 _ZN5QHashI10BattleEnumM15BattleExtracterI11BattleSceneEFvRA1_13__va_list_tagEE11deleteNode2EPN9QHashData4NodeE@Base 2.0.21
 _ZN5QHashI10BattleEnumM15BattleExtracterI11BattleSceneEFvRA1_13__va_list_tagEE13duplicateNodeEPN9QHashData4NodeEPv@Base 2.0.21
 _ZN5QHashI10BattleEnumM15BattleExtracterI11BattleSceneEFvRA1_13__va_list_tagEE6insertERKS0_RKS8_@Base 2.0.21
 _ZN5QHashI10BattleEnumM15BattleExtracterI14TestBattleDataEFvRA1_13__va_list_tagEE11deleteNode2EPN9QHashData4NodeE@Base 2.0.21
 _ZN5QHashI10BattleEnumM15BattleExtracterI14TestBattleDataEFvRA1_13__va_list_tagEE13duplicateNodeEPN9QHashData4NodeEPv@Base 2.0.21
 _ZN5QHashI10BattleEnumM15BattleExtracterI14TestBattleDataEFvRA1_13__va_list_tagEE6insertERKS0_RKS8_@Base 2.0.21
 _ZN5QHashI10BattleEnumM15BattleExtracterI15BattleClientLogEFvRA1_13__va_list_tagEE11deleteNode2EPN9QHashData4NodeE@Base 2.0.21
 _ZN5QHashI10BattleEnumM15BattleExtracterI15BattleClientLogEFvRA1_13__va_list_tagEE13duplicateNodeEPN9QHashData4NodeEPv@Base 2.0.21
 _ZN5QHashI10BattleEnumM15BattleExtracterI15BattleClientLogEFvRA1_13__va_list_tagEE6insertERKS0_RKS8_@Base 2.0.21
 _ZN5QHashI10BattleEnumM15BattleExtracterI18RegularBattleSceneEFvRA1_13__va_list_tagEE11deleteNode2EPN9QHashData4NodeE@Base 2.0.21
 _ZN5QHashI10BattleEnumM15BattleExtracterI18RegularBattleSceneEFvRA1_13__va_list_tagEE13duplicateNodeEPN9QHashData4NodeEPv@Base 2.0.21
 _ZN5QHashI10BattleEnumM15BattleExtracterI18RegularBattleSceneEFvRA1_13__va_list_tagEE6insertERKS0_RKS8_@Base 2.0.21
 _ZN5QHashIi7QPixmapE11deleteNode2EPN9QHashData4NodeE@Base 2.0.21
 _ZN5QHashIi7QPixmapE13duplicateNodeEPN9QHashData4NodeEPv@Base 2.0.21
 _ZN5QHashIi7QPixmapED1Ev@Base 2.0.21
 _ZN5QHashIi7QPixmapED2Ev@Base 2.0.21
 _ZN5QHashIi7QStringE11deleteNode2EPN9QHashData4NodeE@Base 2.0.21
 _ZN5QHashIi7QStringE13duplicateNodeEPN9QHashData4NodeEPv@Base 2.0.21
 _ZN5QHashIi7QStringE6removeERKi@Base 2.0.21
 _ZN5QHashIttE11deleteNode2EPN9QHashData4NodeE@Base 2.0.21
 _ZN5QHashIttE13detach_helperEv@Base 2.0.21
 _ZN5QHashIttE13duplicateNodeEPN9QHashData4NodeEPv@Base 2.0.21
 _ZN5QHashIttE6removeERKt@Base 2.0.21
 _ZN5QHashIttED1Ev@Base 2.0.21
 _ZN5QHashIttED2Ev@Base 2.0.21
 _ZN5QListI7QStringE13detach_helperEi@Base 2.0.21
 _ZN5QListI7QStringE18detach_helper_growEii@Base 2.0.21
 _ZN5QListI7QStringE6appendERKS0_@Base 2.0.21
 _ZN5QListIiE13detach_helperEi@Base 2.0.21
 _ZN5QListIiED1Ev@Base 2.0.21
 _ZN5QListIiED2Ev@Base 2.0.21
 _ZN6QDebugD1Ev@Base 2.0.21
 _ZN6QDebugD2Ev@Base 2.0.21
 _ZN7CommandI11BattleInput10BattleEnumLS1_0EIRiS2_EE5applyEv@Base 2.0.21
 _ZN7CommandI11BattleInput10BattleEnumLS1_0EIRiS2_EED0Ev@Base 2.0.21
 _ZN7CommandI11BattleInput10BattleEnumLS1_0EIRiS2_EED1Ev@Base 2.0.21
 _ZN7CommandI11BattleInput10BattleEnumLS1_0EIRiS2_EED2Ev@Base 2.0.21
 _ZN7CommandI11BattleInput10BattleEnumLS1_10EIRiEE5applyEv@Base 2.0.21
 _ZN7CommandI11BattleInput10BattleEnumLS1_10EIRiEED0Ev@Base 2.0.21
 _ZN7CommandI11BattleInput10BattleEnumLS1_10EIRiEED1Ev@Base 2.0.21
 _ZN7CommandI11BattleInput10BattleEnumLS1_10EIRiEED2Ev@Base 2.0.21
 _ZN7CommandI11BattleInput10BattleEnumLS1_11EIRiEE5applyEv@Base 2.0.21
 _ZN7CommandI11BattleInput10BattleEnumLS1_11EIRiEED0Ev@Base 2.0.21
 _ZN7CommandI11BattleInput10BattleEnumLS1_11EIRiEED1Ev@Base 2.0.21
 _ZN7CommandI11BattleInput10BattleEnumLS1_11EIRiEED2Ev@Base 2.0.21
 _ZN7CommandI11BattleInput10BattleEnumLS1_12EIRiS2_S2_RbEE5applyEv@Base 2.0.21
 _ZN7CommandI11BattleInput10BattleEnumLS1_12EIRiS2_S2_RbEED0Ev@Base 2.0.21
 _ZN7CommandI11BattleInput10BattleEnumLS1_12EIRiS2_S2_RbEED1Ev@Base 2.0.21
 _ZN7CommandI11BattleInput10BattleEnumLS1_12EIRiS2_S2_RbEED2Ev@Base 2.0.21
 _ZN7CommandI11BattleInput10BattleEnumLS1_13EIRiS2_RbS3_EE5applyEv@Base 2.0.21
 _ZN7CommandI11BattleInput10BattleEnumLS1_13EIRiS2_RbS3_EED0Ev@Base 2.0.21
 _ZN7CommandI11BattleInput10BattleEnumLS1_13EIRiS2_RbS3_EED1Ev@Base 2.0.21
 _ZN7CommandI11BattleInput10BattleEnumLS1_13EIRiS2_RbS3_EED2Ev@Base 2.0.21
 _ZN7CommandI11BattleInput10BattleEnumLS1_14EIRiS2_S2_EE5applyEv@Base 2.0.21
 _ZN7CommandI11BattleInput10BattleEnumLS1_14EIRiS2_S2_EED0Ev@Base 2.0.21
 _ZN7CommandI11BattleInput10BattleEnumLS1_14EIRiS2_S2_EED1Ev@Base 2.0.21
 _ZN7CommandI11BattleInput10BattleEnumLS1_14EIRiS2_S2_EED2Ev@Base 2.0.21
 _ZN7CommandI11BattleInput10BattleEnumLS1_15EIRiS2_EE5applyEv@Base 2.0.21
 _ZN7CommandI11BattleInput10BattleEnumLS1_15EIRiS2_EED0Ev@Base 2.0.21
 _ZN7CommandI11BattleInput10BattleEnumLS1_15EIRiS2_EED1Ev@Base 2.0.21
 _ZN7CommandI11BattleInput10BattleEnumLS1_15EIRiS2_EED2Ev@Base 2.0.21
 _ZN7CommandI11BattleInput10BattleEnumLS1_16EIRiS2_EE5applyEv@Base 2.0.21
 _ZN7CommandI11BattleInput10BattleEnumLS1_16EIRiS2_EED0Ev@Base 2.0.21
 _ZN7CommandI11BattleInput10BattleEnumLS1_16EIRiS2_EED1Ev@Base 2.0.21
 _ZN7CommandI11BattleInput10BattleEnumLS1_16EIRiS2_EED2Ev@Base 2.0.21
 _ZN7CommandI11BattleInput10BattleEnumLS1_17EIRiS2_EE5applyEv@Base 2.0.21
 _ZN7CommandI11BattleInput10BattleEnumLS1_17EIRiS2_EED0Ev@Base 2.0.21
 _ZN7CommandI11BattleInput10BattleEnumLS1_17EIRiS2_EED1Ev@Base 2.0.21
 _ZN7CommandI11BattleInput10BattleEnumLS1_17EIRiS2_EED2Ev@Base 2.0.21
 _ZN7CommandI11BattleInput10BattleEnumLS1_18EIRiS2_EE5applyEv@Base 2.0.21
 _ZN7CommandI11BattleInput10BattleEnumLS1_18EIRiS2_EED0Ev@Base 2.0.21
 _ZN7CommandI11BattleInput10BattleEnumLS1_18EIRiS2_EED1Ev@Base 2.0.21
 _ZN7CommandI11BattleInput10BattleEnumLS1_18EIRiS2_EED2Ev@Base 2.0.21
 _ZN7CommandI11BattleInput10BattleEnumLS1_19EIRiRbEE5applyEv@Base 2.0.21
 _ZN7CommandI11BattleInput10BattleEnumLS1_19EIRiRbEED0Ev@Base 2.0.21
 _ZN7CommandI11BattleInput10BattleEnumLS1_19EIRiRbEED1Ev@Base 2.0.21
 _ZN7CommandI11BattleInput10BattleEnumLS1_19EIRiRbEED2Ev@Base 2.0.21
 _ZN7CommandI11BattleInput10BattleEnumLS1_1EIRiS2_EE5applyEv@Base 2.0.21
 _ZN7CommandI11BattleInput10BattleEnumLS1_1EIRiS2_EED0Ev@Base 2.0.21
 _ZN7CommandI11BattleInput10BattleEnumLS1_1EIRiS2_EED1Ev@Base 2.0.21
 _ZN7CommandI11BattleInput10BattleEnumLS1_1EIRiS2_EED2Ev@Base 2.0.21
 _ZN7CommandI11BattleInput10BattleEnumLS1_20EIRiRPSt10shared_ptrI7QStringEEE5applyEv@Base 2.0.21
 _ZN7CommandI11BattleInput10BattleEnumLS1_20EIRiRPSt10shared_ptrI7QStringEEED0Ev@Base 2.0.21
 _ZN7CommandI11BattleInput10BattleEnumLS1_20EIRiRPSt10shared_ptrI7QStringEEED1Ev@Base 2.0.21
 _ZN7CommandI11BattleInput10BattleEnumLS1_20EIRiRPSt10shared_ptrI7QStringEEED2Ev@Base 2.0.21
 _ZN7CommandI11BattleInput10BattleEnumLS1_21EIRiRPSt10shared_ptrI7QStringEEE5applyEv@Base 2.0.21
 _ZN7CommandI11BattleInput10BattleEnumLS1_21EIRiRPSt10shared_ptrI7QStringEEED0Ev@Base 2.0.21
 _ZN7CommandI11BattleInput10BattleEnumLS1_21EIRiRPSt10shared_ptrI7QStringEEED1Ev@Base 2.0.21
 _ZN7CommandI11BattleInput10BattleEnumLS1_21EIRiRPSt10shared_ptrI7QStringEEED2Ev@Base 2.0.21
 _ZN7CommandI11BattleInput10BattleEnumLS1_22EIRiEE5applyEv@Base 2.0.21
 _ZN7CommandI11BattleInput10BattleEnumLS1_22EIRiEED0Ev@Base 2.0.21
 _ZN7CommandI11BattleInput10BattleEnumLS1_22EIRiEED1Ev@Base 2.0.21
 _ZN7CommandI11BattleInput10BattleEnumLS1_22EIRiEED2Ev@Base 2.0.21
 _ZN7CommandI11BattleInput10BattleEnumLS1_23EIRiRPSt10shared_ptrI7QStringEEE5applyEv@Base 2.0.21
 _ZN7CommandI11BattleInput10BattleEnumLS1_23EIRiRPSt10shared_ptrI7QStringEEED0Ev@Base 2.0.21
 _ZN7CommandI11BattleInput10BattleEnumLS1_23EIRiRPSt10shared_ptrI7QStringEEED1Ev@Base 2.0.21
 _ZN7CommandI11BattleInput10BattleEnumLS1_23EIRiRPSt10shared_ptrI7QStringEEED2Ev@Base 2.0.21
 _ZN7CommandI11BattleInput10BattleEnumLS1_24EIRiS2_S2_S2_S2_S2_RPSt10shared_ptrI7QStringEEE5applyEv@Base 2.0.21
 _ZN7CommandI11BattleInput10BattleEnumLS1_24EIRiS2_S2_S2_S2_S2_RPSt10shared_ptrI7QStringEEED0Ev@Base 2.0.21
 _ZN7CommandI11BattleInput10BattleEnumLS1_24EIRiS2_S2_S2_S2_S2_RPSt10shared_ptrI7QStringEEED1Ev@Base 2.0.21
 _ZN7CommandI11BattleInput10BattleEnumLS1_24EIRiS2_S2_S2_S2_S2_RPSt10shared_ptrI7QStringEEED2Ev@Base 2.0.21
 _ZN7CommandI11BattleInput10BattleEnumLS1_25EIRiEE5applyEv@Base 2.0.21
 _ZN7CommandI11BattleInput10BattleEnumLS1_25EIRiEED0Ev@Base 2.0.21
 _ZN7CommandI11BattleInput10BattleEnumLS1_25EIRiEED1Ev@Base 2.0.21
 _ZN7CommandI11BattleInput10BattleEnumLS1_25EIRiEED2Ev@Base 2.0.21
 _ZN7CommandI11BattleInput10BattleEnumLS1_26EIRiS2_S2_S2_S2_S2_EE5applyEv@Base 2.0.21
 _ZN7CommandI11BattleInput10BattleEnumLS1_26EIRiS2_S2_S2_S2_S2_EED0Ev@Base 2.0.21
 _ZN7CommandI11BattleInput10BattleEnumLS1_26EIRiS2_S2_S2_S2_S2_EED1Ev@Base 2.0.21
 _ZN7CommandI11BattleInput10BattleEnumLS1_26EIRiS2_S2_S2_S2_S2_EED2Ev@Base 2.0.21
 _ZN7CommandI11BattleInput10BattleEnumLS1_27EIRiEE5applyEv@Base 2.0.21
 _ZN7CommandI11BattleInput10BattleEnumLS1_27EIRiEED0Ev@Base 2.0.21
 _ZN7CommandI11BattleInput10BattleEnumLS1_27EIRiEED1Ev@Base 2.0.21
 _ZN7CommandI11BattleInput10BattleEnumLS1_27EIRiEED2Ev@Base 2.0.21
 _ZN7CommandI11BattleInput10BattleEnumLS1_28EIRiEE5applyEv@Base 2.0.21
 _ZN7CommandI11BattleInput10BattleEnumLS1_28EIRiEED0Ev@Base 2.0.21
 _ZN7CommandI11BattleInput10BattleEnumLS1_28EIRiEED1Ev@Base 2.0.21
 _ZN7CommandI11BattleInput10BattleEnumLS1_28EIRiEED2Ev@Base 2.0.21
 _ZN7CommandI11BattleInput10BattleEnumLS1_29EIRiEE5applyEv@Base 2.0.21
 _ZN7CommandI11BattleInput10BattleEnumLS1_29EIRiEED0Ev@Base 2.0.21
 _ZN7CommandI11BattleInput10BattleEnumLS1_29EIRiEED1Ev@Base 2.0.21
 _ZN7CommandI11BattleInput10BattleEnumLS1_29EIRiEED2Ev@Base 2.0.21
 _ZN7CommandI11BattleInput10BattleEnumLS1_2EIRhEE5applyEv@Base 2.0.21
 _ZN7CommandI11BattleInput10BattleEnumLS1_2EIRhEED0Ev@Base 2.0.21
 _ZN7CommandI11BattleInput10BattleEnumLS1_2EIRhEED1Ev@Base 2.0.21
 _ZN7CommandI11BattleInput10BattleEnumLS1_2EIRhEED2Ev@Base 2.0.21
 _ZN7CommandI11BattleInput10BattleEnumLS1_30EIRiS2_RbEE5applyEv@Base 2.0.21
 _ZN7CommandI11BattleInput10BattleEnumLS1_30EIRiS2_RbEED0Ev@Base 2.0.21
 _ZN7CommandI11BattleInput10BattleEnumLS1_30EIRiS2_RbEED1Ev@Base 2.0.21
 _ZN7CommandI11BattleInput10BattleEnumLS1_30EIRiS2_RbEED2Ev@Base 2.0.21
 _ZN7CommandI11BattleInput10BattleEnumLS1_31EIRiEE5applyEv@Base 2.0.21
 _ZN7CommandI11BattleInput10BattleEnumLS1_31EIRiEED0Ev@Base 2.0.21
 _ZN7CommandI11BattleInput10BattleEnumLS1_31EIRiEED1Ev@Base 2.0.21
 _ZN7CommandI11BattleInput10BattleEnumLS1_31EIRiEED2Ev@Base 2.0.21
 _ZN7CommandI11BattleInput10BattleEnumLS1_32EIRiEE5applyEv@Base 2.0.21
 _ZN7CommandI11BattleInput10BattleEnumLS1_32EIRiEED0Ev@Base 2.0.21
 _ZN7CommandI11BattleInput10BattleEnumLS1_32EIRiEED1Ev@Base 2.0.21
 _ZN7CommandI11BattleInput10BattleEnumLS1_32EIRiEED2Ev@Base 2.0.21
 _ZN7CommandI11BattleInput10BattleEnumLS1_33EIRiS2_EE5applyEv@Base 2.0.21
 _ZN7CommandI11BattleInput10BattleEnumLS1_33EIRiS2_EED0Ev@Base 2.0.21
 _ZN7CommandI11BattleInput10BattleEnumLS1_33EIRiS2_EED1Ev@Base 2.0.21
 _ZN7CommandI11BattleInput10BattleEnumLS1_33EIRiS2_EED2Ev@Base 2.0.21
 _ZN7CommandI11BattleInput10BattleEnumLS1_34EIRiS2_S2_S2_S2_S2_EE5applyEv@Base 2.0.21
 _ZN7CommandI11BattleInput10BattleEnumLS1_34EIRiS2_S2_S2_S2_S2_EED0Ev@Base 2.0.21
 _ZN7CommandI11BattleInput10BattleEnumLS1_34EIRiS2_S2_S2_S2_S2_EED1Ev@Base 2.0.21
 _ZN7CommandI11BattleInput10BattleEnumLS1_34EIRiS2_S2_S2_S2_S2_EED2Ev@Base 2.0.21
 _ZN7CommandI11BattleInput10BattleEnumLS1_35EIRiRbEE5applyEv@Base 2.0.21
 _ZN7CommandI11BattleInput10BattleEnumLS1_35EIRiRbEED0Ev@Base 2.0.21
 _ZN7CommandI11BattleInput10BattleEnumLS1_35EIRiRbEED1Ev@Base 2.0.21
 _ZN7CommandI11BattleInput10BattleEnumLS1_35EIRiRbEED2Ev@Base 2.0.21
 _ZN7CommandI11BattleInput10BattleEnumLS1_36EIRiS2_EE5applyEv@Base 2.0.21
 _ZN7CommandI11BattleInput10BattleEnumLS1_36EIRiS2_EED0Ev@Base 2.0.21
 _ZN7CommandI11BattleInput10BattleEnumLS1_36EIRiS2_EED1Ev@Base 2.0.21
 _ZN7CommandI11BattleInput10BattleEnumLS1_36EIRiS2_EED2Ev@Base 2.0.21
 _ZN7CommandI11BattleInput10BattleEnumLS1_37EIEE5applyEv@Base 2.0.21
 _ZN7CommandI11BattleInput10BattleEnumLS1_37EIEED0Ev@Base 2.0.21
 _ZN7CommandI11BattleInput10BattleEnumLS1_37EIEED1Ev@Base 2.0.21
 _ZN7CommandI11BattleInput10BattleEnumLS1_37EIEED2Ev@Base 2.0.21
 _ZN7CommandI11BattleInput10BattleEnumLS1_38EIRiEE5applyEv@Base 2.0.21
 _ZN7CommandI11BattleInput10BattleEnumLS1_38EIRiEED0Ev@Base 2.0.21
 _ZN7CommandI11BattleInput10BattleEnumLS1_38EIRiEED1Ev@Base 2.0.21
 _ZN7CommandI11BattleInput10BattleEnumLS1_38EIRiEED2Ev@Base 2.0.21
 _ZN7CommandI11BattleInput10BattleEnumLS1_39EIRbEE5applyEv@Base 2.0.21
 _ZN7CommandI11BattleInput10BattleEnumLS1_39EIRbEED0Ev@Base 2.0.21
 _ZN7CommandI11BattleInput10BattleEnumLS1_39EIRbEED1Ev@Base 2.0.21
 _ZN7CommandI11BattleInput10BattleEnumLS1_39EIRbEED2Ev@Base 2.0.21
 _ZN7CommandI11BattleInput10BattleEnumLS1_3EIRhS2_RPSt10shared_ptrI17ShallowBattlePokeERbEE5applyEv@Base 2.0.21
 _ZN7CommandI11BattleInput10BattleEnumLS1_3EIRhS2_RPSt10shared_ptrI17ShallowBattlePokeERbEED0Ev@Base 2.0.21
 _ZN7CommandI11BattleInput10BattleEnumLS1_3EIRhS2_RPSt10shared_ptrI17ShallowBattlePokeERbEED1Ev@Base 2.0.21
 _ZN7CommandI11BattleInput10BattleEnumLS1_3EIRhS2_RPSt10shared_ptrI17ShallowBattlePokeERbEED2Ev@Base 2.0.21
 _ZN7CommandI11BattleInput10BattleEnumLS1_40EIRPSt10shared_ptrI7QStringEEE5applyEv@Base 2.0.21
 _ZN7CommandI11BattleInput10BattleEnumLS1_40EIRPSt10shared_ptrI7QStringEEED0Ev@Base 2.0.21
 _ZN7CommandI11BattleInput10BattleEnumLS1_40EIRPSt10shared_ptrI7QStringEEED1Ev@Base 2.0.21
 _ZN7CommandI11BattleInput10BattleEnumLS1_40EIRPSt10shared_ptrI7QStringEEED2Ev@Base 2.0.21
 _ZN7CommandI11BattleInput10BattleEnumLS1_41EIRiR17BattleDynamicInfoEE5applyEv@Base 2.0.21
 _ZN7CommandI11BattleInput10BattleEnumLS1_41EIRiR17BattleDynamicInfoEED0Ev@Base 2.0.21
 _ZN7CommandI11BattleInput10BattleEnumLS1_41EIRiR17BattleDynamicInfoEED1Ev@Base 2.0.21
 _ZN7CommandI11BattleInput10BattleEnumLS1_41EIRiR17BattleDynamicInfoEED2Ev@Base 2.0.21
 _ZN7CommandI11BattleInput10BattleEnumLS1_42EIRiEE5applyEv@Base 2.0.21
 _ZN7CommandI11BattleInput10BattleEnumLS1_42EIRiEED0Ev@Base 2.0.21
 _ZN7CommandI11BattleInput10BattleEnumLS1_42EIRiEED1Ev@Base 2.0.21
 _ZN7CommandI11BattleInput10BattleEnumLS1_42EIRiEED2Ev@Base 2.0.21
 _ZN7CommandI11BattleInput10BattleEnumLS1_43EIRiEE5applyEv@Base 2.0.21
 _ZN7CommandI11BattleInput10BattleEnumLS1_43EIRiEED0Ev@Base 2.0.21
 _ZN7CommandI11BattleInput10BattleEnumLS1_43EIRiEED1Ev@Base 2.0.21
 _ZN7CommandI11BattleInput10BattleEnumLS1_43EIRiEED2Ev@Base 2.0.21
 _ZN7CommandI11BattleInput10BattleEnumLS1_44EIRiS2_EE5applyEv@Base 2.0.21
 _ZN7CommandI11BattleInput10BattleEnumLS1_44EIRiS2_EED0Ev@Base 2.0.21
 _ZN7CommandI11BattleInput10BattleEnumLS1_44EIRiS2_EED1Ev@Base 2.0.21
 _ZN7CommandI11BattleInput10BattleEnumLS1_44EIRiS2_EED2Ev@Base 2.0.21
 _ZN7CommandI11BattleInput10BattleEnumLS1_45EIRiS2_S2_EE5applyEv@Base 2.0.21
 _ZN7CommandI11BattleInput10BattleEnumLS1_45EIRiS2_S2_EED0Ev@Base 2.0.21
 _ZN7CommandI11BattleInput10BattleEnumLS1_45EIRiS2_S2_EED1Ev@Base 2.0.21
 _ZN7CommandI11BattleInput10BattleEnumLS1_45EIRiS2_S2_EED2Ev@Base 2.0.21
 _ZN7CommandI11BattleInput10BattleEnumLS1_46EIRiS2_EE5applyEv@Base 2.0.21
 _ZN7CommandI11BattleInput10BattleEnumLS1_46EIRiS2_EED0Ev@Base 2.0.21
 _ZN7CommandI11BattleInput10BattleEnumLS1_46EIRiS2_EED1Ev@Base 2.0.21
 _ZN7CommandI11BattleInput10BattleEnumLS1_46EIRiS2_EED2Ev@Base 2.0.21
 _ZN7CommandI11BattleInput10BattleEnumLS1_47EIRiS2_EE5applyEv@Base 2.0.21
 _ZN7CommandI11BattleInput10BattleEnumLS1_47EIRiS2_EED0Ev@Base 2.0.21
 _ZN7CommandI11BattleInput10BattleEnumLS1_47EIRiS2_EED1Ev@Base 2.0.21
 _ZN7CommandI11BattleInput10BattleEnumLS1_47EIRiS2_EED2Ev@Base 2.0.21
 _ZN7CommandI11BattleInput10BattleEnumLS1_48EIRiS2_EE5applyEv@Base 2.0.21
 _ZN7CommandI11BattleInput10BattleEnumLS1_48EIRiS2_EED0Ev@Base 2.0.21
 _ZN7CommandI11BattleInput10BattleEnumLS1_48EIRiS2_EED1Ev@Base 2.0.21
 _ZN7CommandI11BattleInput10BattleEnumLS1_48EIRiS2_EED2Ev@Base 2.0.21
 _ZN7CommandI11BattleInput10BattleEnumLS1_49EIRiS2_S2_RbEE5applyEv@Base 2.0.21
 _ZN7CommandI11BattleInput10BattleEnumLS1_49EIRiS2_S2_RbEED0Ev@Base 2.0.21
 _ZN7CommandI11BattleInput10BattleEnumLS1_49EIRiS2_S2_RbEED1Ev@Base 2.0.21
 _ZN7CommandI11BattleInput10BattleEnumLS1_49EIRiS2_S2_RbEED2Ev@Base 2.0.21
 _ZN7CommandI11BattleInput10BattleEnumLS1_4EIRiRbEE5applyEv@Base 2.0.21
 _ZN7CommandI11BattleInput10BattleEnumLS1_4EIRiRbEED0Ev@Base 2.0.21
 _ZN7CommandI11BattleInput10BattleEnumLS1_4EIRiRbEED1Ev@Base 2.0.21
 _ZN7CommandI11BattleInput10BattleEnumLS1_4EIRiRbEED2Ev@Base 2.0.21
 _ZN7CommandI11BattleInput10BattleEnumLS1_50EIRiS2_S2_EE5applyEv@Base 2.0.21
 _ZN7CommandI11BattleInput10BattleEnumLS1_50EIRiS2_S2_EED0Ev@Base 2.0.21
 _ZN7CommandI11BattleInput10BattleEnumLS1_50EIRiS2_S2_EED1Ev@Base 2.0.21
 _ZN7CommandI11BattleInput10BattleEnumLS1_50EIRiS2_S2_EED2Ev@Base 2.0.21
 _ZN7CommandI11BattleInput10BattleEnumLS1_51EIRiRPSt10shared_ptrI13BattleChoicesEEE5applyEv@Base 2.0.21
 _ZN7CommandI11BattleInput10BattleEnumLS1_51EIRiRPSt10shared_ptrI13BattleChoicesEEED0Ev@Base 2.0.21
 _ZN7CommandI11BattleInput10BattleEnumLS1_51EIRiRPSt10shared_ptrI13BattleChoicesEEED1Ev@Base 2.0.21
 _ZN7CommandI11BattleInput10BattleEnumLS1_51EIRiRPSt10shared_ptrI13BattleChoicesEEED2Ev@Base 2.0.21
 _ZN7CommandI11BattleInput10BattleEnumLS1_52EIRiS2_S2_EE5applyEv@Base 2.0.21
 _ZN7CommandI11BattleInput10BattleEnumLS1_52EIRiS2_S2_EED0Ev@Base 2.0.21
 _ZN7CommandI11BattleInput10BattleEnumLS1_52EIRiS2_S2_EED1Ev@Base 2.0.21
 _ZN7CommandI11BattleInput10BattleEnumLS1_52EIRiS2_S2_EED2Ev@Base 2.0.21
 _ZN7CommandI11BattleInput10BattleEnumLS1_53EIRiS2_S2_RbEE5applyEv@Base 2.0.21
 _ZN7CommandI11BattleInput10BattleEnumLS1_53EIRiS2_S2_RbEED0Ev@Base 2.0.21
 _ZN7CommandI11BattleInput10BattleEnumLS1_53EIRiS2_S2_RbEED1Ev@Base 2.0.21
 _ZN7CommandI11BattleInput10BattleEnumLS1_53EIRiS2_S2_RbEED2Ev@Base 2.0.21
 _ZN7CommandI11BattleInput10BattleEnumLS1_54EIRiRPSt10shared_ptrI16ShallowShownTeamEEE5applyEv@Base 2.0.21
 _ZN7CommandI11BattleInput10BattleEnumLS1_54EIRiRPSt10shared_ptrI16ShallowShownTeamEEED0Ev@Base 2.0.21
 _ZN7CommandI11BattleInput10BattleEnumLS1_54EIRiRPSt10shared_ptrI16ShallowShownTeamEEED1Ev@Base 2.0.21
 _ZN7CommandI11BattleInput10BattleEnumLS1_54EIRiRPSt10shared_ptrI16ShallowShownTeamEEED2Ev@Base 2.0.21
 _ZN7CommandI11BattleInput10BattleEnumLS1_55EIRiEE5applyEv@Base 2.0.21
 _ZN7CommandI11BattleInput10BattleEnumLS1_55EIRiEED0Ev@Base 2.0.21
 _ZN7CommandI11BattleInput10BattleEnumLS1_55EIRiEED1Ev@Base 2.0.21
 _ZN7CommandI11BattleInput10BattleEnumLS1_55EIRiEED2Ev@Base 2.0.21
 _ZN7CommandI11BattleInput10BattleEnumLS1_56EIRiEE5applyEv@Base 2.0.21
 _ZN7CommandI11BattleInput10BattleEnumLS1_56EIRiEED0Ev@Base 2.0.21
 _ZN7CommandI11BattleInput10BattleEnumLS1_56EIRiEED1Ev@Base 2.0.21
 _ZN7CommandI11BattleInput10BattleEnumLS1_56EIRiEED2Ev@Base 2.0.21
 _ZN7CommandI11BattleInput10BattleEnumLS1_57EIRiS2_S2_EE5applyEv@Base 2.0.21
 _ZN7CommandI11BattleInput10BattleEnumLS1_57EIRiS2_S2_EED0Ev@Base 2.0.21
 _ZN7CommandI11BattleInput10BattleEnumLS1_57EIRiS2_S2_EED1Ev@Base 2.0.21
 _ZN7CommandI11BattleInput10BattleEnumLS1_57EIRiS2_S2_EED2Ev@Base 2.0.21
 _ZN7CommandI11BattleInput10BattleEnumLS1_58EIRiRPSt10shared_ptrI11BattleStatsEEE5applyEv@Base 2.0.21
 _ZN7CommandI11BattleInput10BattleEnumLS1_58EIRiRPSt10shared_ptrI11BattleStatsEEED0Ev@Base 2.0.21
 _ZN7CommandI11BattleInput10BattleEnumLS1_58EIRiRPSt10shared_ptrI11BattleStatsEEED1Ev@Base 2.0.21
 _ZN7CommandI11BattleInput10BattleEnumLS1_58EIRiRPSt10shared_ptrI11BattleStatsEEED2Ev@Base 2.0.21
 _ZN7CommandI11BattleInput10BattleEnumLS1_59EIRPSt10shared_ptrI7QStringEEE5applyEv@Base 2.0.21
 _ZN7CommandI11BattleInput10BattleEnumLS1_59EIRPSt10shared_ptrI7QStringEEED0Ev@Base 2.0.21
 _ZN7CommandI11BattleInput10BattleEnumLS1_59EIRPSt10shared_ptrI7QStringEEED1Ev@Base 2.0.21
 _ZN7CommandI11BattleInput10BattleEnumLS1_59EIRPSt10shared_ptrI7QStringEEED2Ev@Base 2.0.21
 _ZN7CommandI11BattleInput10BattleEnumLS1_5EIRiS2_RbEE5applyEv@Base 2.0.21
 _ZN7CommandI11BattleInput10BattleEnumLS1_5EIRiS2_RbEED0Ev@Base 2.0.21
 _ZN7CommandI11BattleInput10BattleEnumLS1_5EIRiS2_RbEED1Ev@Base 2.0.21
 _ZN7CommandI11BattleInput10BattleEnumLS1_5EIRiS2_RbEED2Ev@Base 2.0.21
 _ZN7CommandI11BattleInput10BattleEnumLS1_60EIRiEE5applyEv@Base 2.0.21
 _ZN7CommandI11BattleInput10BattleEnumLS1_60EIRiEED0Ev@Base 2.0.21
 _ZN7CommandI11BattleInput10BattleEnumLS1_60EIRiEED1Ev@Base 2.0.21
 _ZN7CommandI11BattleInput10BattleEnumLS1_60EIRiEED2Ev@Base 2.0.21
 _ZN7CommandI11BattleInput10BattleEnumLS1_61EIRiEE5applyEv@Base 2.0.21
 _ZN7CommandI11BattleInput10BattleEnumLS1_61EIRiEED0Ev@Base 2.0.21
 _ZN7CommandI11BattleInput10BattleEnumLS1_61EIRiEED1Ev@Base 2.0.21
 _ZN7CommandI11BattleInput10BattleEnumLS1_61EIRiEED2Ev@Base 2.0.21
 _ZN7CommandI11BattleInput10BattleEnumLS1_62EIRiS2_S2_EE5applyEv@Base 2.0.21
 _ZN7CommandI11BattleInput10BattleEnumLS1_62EIRiS2_S2_EED0Ev@Base 2.0.21
 _ZN7CommandI11BattleInput10BattleEnumLS1_62EIRiS2_S2_EED1Ev@Base 2.0.21
 _ZN7CommandI11BattleInput10BattleEnumLS1_62EIRiS2_S2_EED2Ev@Base 2.0.21
 _ZN7CommandI11BattleInput10BattleEnumLS1_63EIRiS2_EE5applyEv@Base 2.0.21
 _ZN7CommandI11BattleInput10BattleEnumLS1_63EIRiS2_EED0Ev@Base 2.0.21
 _ZN7CommandI11BattleInput10BattleEnumLS1_63EIRiS2_EED1Ev@Base 2.0.21
 _ZN7CommandI11BattleInput10BattleEnumLS1_63EIRiS2_EED2Ev@Base 2.0.21
 _ZN7CommandI11BattleInput10BattleEnumLS1_64EIRiRPSt10shared_ptrI15RearrangeChoiceEEE5applyEv@Base 2.0.21
 _ZN7CommandI11BattleInput10BattleEnumLS1_64EIRiRPSt10shared_ptrI15RearrangeChoiceEEED0Ev@Base 2.0.21
 _ZN7CommandI11BattleInput10BattleEnumLS1_64EIRiRPSt10shared_ptrI15RearrangeChoiceEEED1Ev@Base 2.0.21
 _ZN7CommandI11BattleInput10BattleEnumLS1_64EIRiRPSt10shared_ptrI15RearrangeChoiceEEED2Ev@Base 2.0.21
 _ZN7CommandI11BattleInput10BattleEnumLS1_65EIRiEE5applyEv@Base 2.0.21
 _ZN7CommandI11BattleInput10BattleEnumLS1_65EIRiEED0Ev@Base 2.0.21
 _ZN7CommandI11BattleInput10BattleEnumLS1_65EIRiEED1Ev@Base 2.0.21
 _ZN7CommandI11BattleInput10BattleEnumLS1_65EIRiEED2Ev@Base 2.0.21
 _ZN7CommandI11BattleInput10BattleEnumLS1_66EIRiEE5applyEv@Base 2.0.21
 _ZN7CommandI11BattleInput10BattleEnumLS1_66EIRiEED0Ev@Base 2.0.21
 _ZN7CommandI11BattleInput10BattleEnumLS1_66EIRiEED1Ev@Base 2.0.21
 _ZN7CommandI11BattleInput10BattleEnumLS1_66EIRiEED2Ev@Base 2.0.21
 _ZN7CommandI11BattleInput10BattleEnumLS1_67EIRiEE5applyEv@Base 2.0.21
 _ZN7CommandI11BattleInput10BattleEnumLS1_67EIRiEED0Ev@Base 2.0.21
 _ZN7CommandI11BattleInput10BattleEnumLS1_67EIRiEED1Ev@Base 2.0.21
 _ZN7CommandI11BattleInput10BattleEnumLS1_67EIRiEED2Ev@Base 2.0.21
 _ZN7CommandI11BattleInput10BattleEnumLS1_68EIRiS2_EE5applyEv@Base 2.0.21
 _ZN7CommandI11BattleInput10BattleEnumLS1_68EIRiS2_EED0Ev@Base 2.0.21
 _ZN7CommandI11BattleInput10BattleEnumLS1_68EIRiS2_EED1Ev@Base 2.0.21
 _ZN7CommandI11BattleInput10BattleEnumLS1_68EIRiS2_EED2Ev@Base 2.0.21
 _ZN7CommandI11BattleInput10BattleEnumLS1_69EIRiS2_S2_EE5applyEv@Base 2.0.21
 _ZN7CommandI11BattleInput10BattleEnumLS1_69EIRiS2_S2_EED0Ev@Base 2.0.21
 _ZN7CommandI11BattleInput10BattleEnumLS1_69EIRiS2_S2_EED1Ev@Base 2.0.21
 _ZN7CommandI11BattleInput10BattleEnumLS1_69EIRiS2_S2_EED2Ev@Base 2.0.21
 _ZN7CommandI11BattleInput10BattleEnumLS1_6EIRiEE5applyEv@Base 2.0.21
 _ZN7CommandI11BattleInput10BattleEnumLS1_6EIRiEED0Ev@Base 2.0.21
 _ZN7CommandI11BattleInput10BattleEnumLS1_6EIRiEED1Ev@Base 2.0.21
 _ZN7CommandI11BattleInput10BattleEnumLS1_6EIRiEED2Ev@Base 2.0.21
 _ZN7CommandI11BattleInput10BattleEnumLS1_7EIRiS2_EE5applyEv@Base 2.0.21
 _ZN7CommandI11BattleInput10BattleEnumLS1_7EIRiS2_EED0Ev@Base 2.0.21
 _ZN7CommandI11BattleInput10BattleEnumLS1_7EIRiS2_EED1Ev@Base 2.0.21
 _ZN7CommandI11BattleInput10BattleEnumLS1_7EIRiS2_EED2Ev@Base 2.0.21
 _ZN7CommandI11BattleInput10BattleEnumLS1_8EIRiS2_EE5applyEv@Base 2.0.21
 _ZN7CommandI11BattleInput10BattleEnumLS1_8EIRiS2_EED0Ev@Base 2.0.21
 _ZN7CommandI11BattleInput10BattleEnumLS1_8EIRiS2_EED1Ev@Base 2.0.21
 _ZN7CommandI11BattleInput10BattleEnumLS1_8EIRiS2_EED2Ev@Base 2.0.21
 _ZN7CommandI11BattleInput10BattleEnumLS1_9EIRiEE5applyEv@Base 2.0.21
 _ZN7CommandI11BattleInput10BattleEnumLS1_9EIRiEED0Ev@Base 2.0.21
 _ZN7CommandI11BattleInput10BattleEnumLS1_9EIRiEED1Ev@Base 2.0.21
 _ZN7CommandI11BattleInput10BattleEnumLS1_9EIRiEED2Ev@Base 2.0.21
 _ZN7CommandI11BattleScene10BattleEnumLS1_0EIRiS2_EE5applyEv@Base 2.0.21
 _ZN7CommandI11BattleScene10BattleEnumLS1_0EIRiS2_EED0Ev@Base 2.0.21
 _ZN7CommandI11BattleScene10BattleEnumLS1_0EIRiS2_EED1Ev@Base 2.0.21
 _ZN7CommandI11BattleScene10BattleEnumLS1_0EIRiS2_EED2Ev@Base 2.0.21
 _ZN7CommandI11BattleScene10BattleEnumLS1_10EIRiEE5applyEv@Base 2.0.21
 _ZN7CommandI11BattleScene10BattleEnumLS1_10EIRiEED0Ev@Base 2.0.21
 _ZN7CommandI11BattleScene10BattleEnumLS1_10EIRiEED1Ev@Base 2.0.21
 _ZN7CommandI11BattleScene10BattleEnumLS1_10EIRiEED2Ev@Base 2.0.21
 _ZN7CommandI11BattleScene10BattleEnumLS1_11EIRiEE5applyEv@Base 2.0.21
 _ZN7CommandI11BattleScene10BattleEnumLS1_11EIRiEED0Ev@Base 2.0.21
 _ZN7CommandI11BattleScene10BattleEnumLS1_11EIRiEED1Ev@Base 2.0.21
 _ZN7CommandI11BattleScene10BattleEnumLS1_11EIRiEED2Ev@Base 2.0.21
 _ZN7CommandI11BattleScene10BattleEnumLS1_12EIRiS2_S2_RbEE5applyEv@Base 2.0.21
 _ZN7CommandI11BattleScene10BattleEnumLS1_12EIRiS2_S2_RbEED0Ev@Base 2.0.21
 _ZN7CommandI11BattleScene10BattleEnumLS1_12EIRiS2_S2_RbEED1Ev@Base 2.0.21
 _ZN7CommandI11BattleScene10BattleEnumLS1_12EIRiS2_S2_RbEED2Ev@Base 2.0.21
 _ZN7CommandI11BattleScene10BattleEnumLS1_13EIRiS2_RbS3_EE5applyEv@Base 2.0.21
 _ZN7CommandI11BattleScene10BattleEnumLS1_13EIRiS2_RbS3_EED0Ev@Base 2.0.21
 _ZN7CommandI11BattleScene10BattleEnumLS1_13EIRiS2_RbS3_EED1Ev@Base 2.0.21
 _ZN7CommandI11BattleScene10BattleEnumLS1_13EIRiS2_RbS3_EED2Ev@Base 2.0.21
 _ZN7CommandI11BattleScene10BattleEnumLS1_14EIRiS2_S2_EE5applyEv@Base 2.0.21
 _ZN7CommandI11BattleScene10BattleEnumLS1_14EIRiS2_S2_EED0Ev@Base 2.0.21
 _ZN7CommandI11BattleScene10BattleEnumLS1_14EIRiS2_S2_EED1Ev@Base 2.0.21
 _ZN7CommandI11BattleScene10BattleEnumLS1_14EIRiS2_S2_EED2Ev@Base 2.0.21
 _ZN7CommandI11BattleScene10BattleEnumLS1_15EIRiS2_EE5applyEv@Base 2.0.21
 _ZN7CommandI11BattleScene10BattleEnumLS1_15EIRiS2_EED0Ev@Base 2.0.21
 _ZN7CommandI11BattleScene10BattleEnumLS1_15EIRiS2_EED1Ev@Base 2.0.21
 _ZN7CommandI11BattleScene10BattleEnumLS1_15EIRiS2_EED2Ev@Base 2.0.21
 _ZN7CommandI11BattleScene10BattleEnumLS1_16EIRiS2_EE5applyEv@Base 2.0.21
 _ZN7CommandI11BattleScene10BattleEnumLS1_16EIRiS2_EED0Ev@Base 2.0.21
 _ZN7CommandI11BattleScene10BattleEnumLS1_16EIRiS2_EED1Ev@Base 2.0.21
 _ZN7CommandI11BattleScene10BattleEnumLS1_16EIRiS2_EED2Ev@Base 2.0.21
 _ZN7CommandI11BattleScene10BattleEnumLS1_17EIRiS2_EE5applyEv@Base 2.0.21
 _ZN7CommandI11BattleScene10BattleEnumLS1_17EIRiS2_EED0Ev@Base 2.0.21
 _ZN7CommandI11BattleScene10BattleEnumLS1_17EIRiS2_EED1Ev@Base 2.0.21
 _ZN7CommandI11BattleScene10BattleEnumLS1_17EIRiS2_EED2Ev@Base 2.0.21
 _ZN7CommandI11BattleScene10BattleEnumLS1_18EIRiS2_EE5applyEv@Base 2.0.21
 _ZN7CommandI11BattleScene10BattleEnumLS1_18EIRiS2_EED0Ev@Base 2.0.21
 _ZN7CommandI11BattleScene10BattleEnumLS1_18EIRiS2_EED1Ev@Base 2.0.21
 _ZN7CommandI11BattleScene10BattleEnumLS1_18EIRiS2_EED2Ev@Base 2.0.21
 _ZN7CommandI11BattleScene10BattleEnumLS1_19EIRiRbEE5applyEv@Base 2.0.21
 _ZN7CommandI11BattleScene10BattleEnumLS1_19EIRiRbEED0Ev@Base 2.0.21
 _ZN7CommandI11BattleScene10BattleEnumLS1_19EIRiRbEED1Ev@Base 2.0.21
 _ZN7CommandI11BattleScene10BattleEnumLS1_19EIRiRbEED2Ev@Base 2.0.21
 _ZN7CommandI11BattleScene10BattleEnumLS1_1EIRiS2_EE5applyEv@Base 2.0.21
 _ZN7CommandI11BattleScene10BattleEnumLS1_1EIRiS2_EED0Ev@Base 2.0.21
 _ZN7CommandI11BattleScene10BattleEnumLS1_1EIRiS2_EED1Ev@Base 2.0.21
 _ZN7CommandI11BattleScene10BattleEnumLS1_1EIRiS2_EED2Ev@Base 2.0.21
 _ZN7CommandI11BattleScene10BattleEnumLS1_20EIRiRPSt10shared_ptrI7QStringEEE5applyEv@Base 2.0.21
 _ZN7CommandI11BattleScene10BattleEnumLS1_20EIRiRPSt10shared_ptrI7QStringEEED0Ev@Base 2.0.21
 _ZN7CommandI11BattleScene10BattleEnumLS1_20EIRiRPSt10shared_ptrI7QStringEEED1Ev@Base 2.0.21
 _ZN7CommandI11BattleScene10BattleEnumLS1_20EIRiRPSt10shared_ptrI7QStringEEED2Ev@Base 2.0.21
 _ZN7CommandI11BattleScene10BattleEnumLS1_21EIRiRPSt10shared_ptrI7QStringEEE5applyEv@Base 2.0.21
 _ZN7CommandI11BattleScene10BattleEnumLS1_21EIRiRPSt10shared_ptrI7QStringEEED0Ev@Base 2.0.21
 _ZN7CommandI11BattleScene10BattleEnumLS1_21EIRiRPSt10shared_ptrI7QStringEEED1Ev@Base 2.0.21
 _ZN7CommandI11BattleScene10BattleEnumLS1_21EIRiRPSt10shared_ptrI7QStringEEED2Ev@Base 2.0.21
 _ZN7CommandI11BattleScene10BattleEnumLS1_22EIRiEE5applyEv@Base 2.0.21
 _ZN7CommandI11BattleScene10BattleEnumLS1_22EIRiEED0Ev@Base 2.0.21
 _ZN7CommandI11BattleScene10BattleEnumLS1_22EIRiEED1Ev@Base 2.0.21
 _ZN7CommandI11BattleScene10BattleEnumLS1_22EIRiEED2Ev@Base 2.0.21
 _ZN7CommandI11BattleScene10BattleEnumLS1_23EIRiRPSt10shared_ptrI7QStringEEE5applyEv@Base 2.0.21
 _ZN7CommandI11BattleScene10BattleEnumLS1_23EIRiRPSt10shared_ptrI7QStringEEED0Ev@Base 2.0.21
 _ZN7CommandI11BattleScene10BattleEnumLS1_23EIRiRPSt10shared_ptrI7QStringEEED1Ev@Base 2.0.21
 _ZN7CommandI11BattleScene10BattleEnumLS1_23EIRiRPSt10shared_ptrI7QStringEEED2Ev@Base 2.0.21
 _ZN7CommandI11BattleScene10BattleEnumLS1_24EIRiS2_S2_S2_S2_S2_RPSt10shared_ptrI7QStringEEE5applyEv@Base 2.0.21
 _ZN7CommandI11BattleScene10BattleEnumLS1_24EIRiS2_S2_S2_S2_S2_RPSt10shared_ptrI7QStringEEED0Ev@Base 2.0.21
 _ZN7CommandI11BattleScene10BattleEnumLS1_24EIRiS2_S2_S2_S2_S2_RPSt10shared_ptrI7QStringEEED1Ev@Base 2.0.21
 _ZN7CommandI11BattleScene10BattleEnumLS1_24EIRiS2_S2_S2_S2_S2_RPSt10shared_ptrI7QStringEEED2Ev@Base 2.0.21
 _ZN7CommandI11BattleScene10BattleEnumLS1_25EIRiEE5applyEv@Base 2.0.21
 _ZN7CommandI11BattleScene10BattleEnumLS1_25EIRiEED0Ev@Base 2.0.21
 _ZN7CommandI11BattleScene10BattleEnumLS1_25EIRiEED1Ev@Base 2.0.21
 _ZN7CommandI11BattleScene10BattleEnumLS1_25EIRiEED2Ev@Base 2.0.21
 _ZN7CommandI11BattleScene10BattleEnumLS1_26EIRiS2_S2_S2_S2_S2_EE5applyEv@Base 2.0.21
 _ZN7CommandI11BattleScene10BattleEnumLS1_26EIRiS2_S2_S2_S2_S2_EED0Ev@Base 2.0.21
 _ZN7CommandI11BattleScene10BattleEnumLS1_26EIRiS2_S2_S2_S2_S2_EED1Ev@Base 2.0.21
 _ZN7CommandI11BattleScene10BattleEnumLS1_26EIRiS2_S2_S2_S2_S2_EED2Ev@Base 2.0.21
 _ZN7CommandI11BattleScene10BattleEnumLS1_27EIRiEE5applyEv@Base 2.0.21
 _ZN7CommandI11BattleScene10BattleEnumLS1_27EIRiEED0Ev@Base 2.0.21
 _ZN7CommandI11BattleScene10BattleEnumLS1_27EIRiEED1Ev@Base 2.0.21
 _ZN7CommandI11BattleScene10BattleEnumLS1_27EIRiEED2Ev@Base 2.0.21
 _ZN7CommandI11BattleScene10BattleEnumLS1_28EIRiEE5applyEv@Base 2.0.21
 _ZN7CommandI11BattleScene10BattleEnumLS1_28EIRiEED0Ev@Base 2.0.21
 _ZN7CommandI11BattleScene10BattleEnumLS1_28EIRiEED1Ev@Base 2.0.21
 _ZN7CommandI11BattleScene10BattleEnumLS1_28EIRiEED2Ev@Base 2.0.21
 _ZN7CommandI11BattleScene10BattleEnumLS1_29EIRiEE5applyEv@Base 2.0.21
 _ZN7CommandI11BattleScene10BattleEnumLS1_29EIRiEED0Ev@Base 2.0.21
 _ZN7CommandI11BattleScene10BattleEnumLS1_29EIRiEED1Ev@Base 2.0.21
 _ZN7CommandI11BattleScene10BattleEnumLS1_29EIRiEED2Ev@Base 2.0.21
 _ZN7CommandI11BattleScene10BattleEnumLS1_2EIRhEE5applyEv@Base 2.0.21
 _ZN7CommandI11BattleScene10BattleEnumLS1_2EIRhEED0Ev@Base 2.0.21
 _ZN7CommandI11BattleScene10BattleEnumLS1_2EIRhEED1Ev@Base 2.0.21
 _ZN7CommandI11BattleScene10BattleEnumLS1_2EIRhEED2Ev@Base 2.0.21
 _ZN7CommandI11BattleScene10BattleEnumLS1_30EIRiS2_RbEE5applyEv@Base 2.0.21
 _ZN7CommandI11BattleScene10BattleEnumLS1_30EIRiS2_RbEED0Ev@Base 2.0.21
 _ZN7CommandI11BattleScene10BattleEnumLS1_30EIRiS2_RbEED1Ev@Base 2.0.21
 _ZN7CommandI11BattleScene10BattleEnumLS1_30EIRiS2_RbEED2Ev@Base 2.0.21
 _ZN7CommandI11BattleScene10BattleEnumLS1_31EIRiEE5applyEv@Base 2.0.21
 _ZN7CommandI11BattleScene10BattleEnumLS1_31EIRiEED0Ev@Base 2.0.21
 _ZN7CommandI11BattleScene10BattleEnumLS1_31EIRiEED1Ev@Base 2.0.21
 _ZN7CommandI11BattleScene10BattleEnumLS1_31EIRiEED2Ev@Base 2.0.21
 _ZN7CommandI11BattleScene10BattleEnumLS1_32EIRiEE5applyEv@Base 2.0.21
 _ZN7CommandI11BattleScene10BattleEnumLS1_32EIRiEED0Ev@Base 2.0.21
 _ZN7CommandI11BattleScene10BattleEnumLS1_32EIRiEED1Ev@Base 2.0.21
 _ZN7CommandI11BattleScene10BattleEnumLS1_32EIRiEED2Ev@Base 2.0.21
 _ZN7CommandI11BattleScene10BattleEnumLS1_33EIRiS2_EE5applyEv@Base 2.0.21
 _ZN7CommandI11BattleScene10BattleEnumLS1_33EIRiS2_EED0Ev@Base 2.0.21
 _ZN7CommandI11BattleScene10BattleEnumLS1_33EIRiS2_EED1Ev@Base 2.0.21
 _ZN7CommandI11BattleScene10BattleEnumLS1_33EIRiS2_EED2Ev@Base 2.0.21
 _ZN7CommandI11BattleScene10BattleEnumLS1_34EIRiS2_S2_S2_S2_S2_EE5applyEv@Base 2.0.21
 _ZN7CommandI11BattleScene10BattleEnumLS1_34EIRiS2_S2_S2_S2_S2_EED0Ev@Base 2.0.21
 _ZN7CommandI11BattleScene10BattleEnumLS1_34EIRiS2_S2_S2_S2_S2_EED1Ev@Base 2.0.21
 _ZN7CommandI11BattleScene10BattleEnumLS1_34EIRiS2_S2_S2_S2_S2_EED2Ev@Base 2.0.21
 _ZN7CommandI11BattleScene10BattleEnumLS1_35EIRiRbEE5applyEv@Base 2.0.21
 _ZN7CommandI11BattleScene10BattleEnumLS1_35EIRiRbEED0Ev@Base 2.0.21
 _ZN7CommandI11BattleScene10BattleEnumLS1_35EIRiRbEED1Ev@Base 2.0.21
 _ZN7CommandI11BattleScene10BattleEnumLS1_35EIRiRbEED2Ev@Base 2.0.21
 _ZN7CommandI11BattleScene10BattleEnumLS1_36EIRiS2_EE5applyEv@Base 2.0.21
 _ZN7CommandI11BattleScene10BattleEnumLS1_36EIRiS2_EED0Ev@Base 2.0.21
 _ZN7CommandI11BattleScene10BattleEnumLS1_36EIRiS2_EED1Ev@Base 2.0.21
 _ZN7CommandI11BattleScene10BattleEnumLS1_36EIRiS2_EED2Ev@Base 2.0.21
 _ZN7CommandI11BattleScene10BattleEnumLS1_37EIEE5applyEv@Base 2.0.21
 _ZN7CommandI11BattleScene10BattleEnumLS1_37EIEED0Ev@Base 2.0.21
 _ZN7CommandI11BattleScene10BattleEnumLS1_37EIEED1Ev@Base 2.0.21
 _ZN7CommandI11BattleScene10BattleEnumLS1_37EIEED2Ev@Base 2.0.21
 _ZN7CommandI11BattleScene10BattleEnumLS1_38EIRiEE5applyEv@Base 2.0.21
 _ZN7CommandI11BattleScene10BattleEnumLS1_38EIRiEED0Ev@Base 2.0.21
 _ZN7CommandI11BattleScene10BattleEnumLS1_38EIRiEED1Ev@Base 2.0.21
 _ZN7CommandI11BattleScene10BattleEnumLS1_38EIRiEED2Ev@Base 2.0.21
 _ZN7CommandI11BattleScene10BattleEnumLS1_39EIRbEE5applyEv@Base 2.0.21
 _ZN7CommandI11BattleScene10BattleEnumLS1_39EIRbEED0Ev@Base 2.0.21
 _ZN7CommandI11BattleScene10BattleEnumLS1_39EIRbEED1Ev@Base 2.0.21
 _ZN7CommandI11BattleScene10BattleEnumLS1_39EIRbEED2Ev@Base 2.0.21
 _ZN7CommandI11BattleScene10BattleEnumLS1_3EIRhS2_RPSt10shared_ptrI17ShallowBattlePokeERbEE5applyEv@Base 2.0.21
 _ZN7CommandI11BattleScene10BattleEnumLS1_3EIRhS2_RPSt10shared_ptrI17ShallowBattlePokeERbEED0Ev@Base 2.0.21
 _ZN7CommandI11BattleScene10BattleEnumLS1_3EIRhS2_RPSt10shared_ptrI17ShallowBattlePokeERbEED1Ev@Base 2.0.21
 _ZN7CommandI11BattleScene10BattleEnumLS1_3EIRhS2_RPSt10shared_ptrI17ShallowBattlePokeERbEED2Ev@Base 2.0.21
 _ZN7CommandI11BattleScene10BattleEnumLS1_40EIRPSt10shared_ptrI7QStringEEE5applyEv@Base 2.0.21
 _ZN7CommandI11BattleScene10BattleEnumLS1_40EIRPSt10shared_ptrI7QStringEEED0Ev@Base 2.0.21
 _ZN7CommandI11BattleScene10BattleEnumLS1_40EIRPSt10shared_ptrI7QStringEEED1Ev@Base 2.0.21
 _ZN7CommandI11BattleScene10BattleEnumLS1_40EIRPSt10shared_ptrI7QStringEEED2Ev@Base 2.0.21
 _ZN7CommandI11BattleScene10BattleEnumLS1_41EIRiR17BattleDynamicInfoEE5applyEv@Base 2.0.21
 _ZN7CommandI11BattleScene10BattleEnumLS1_41EIRiR17BattleDynamicInfoEED0Ev@Base 2.0.21
 _ZN7CommandI11BattleScene10BattleEnumLS1_41EIRiR17BattleDynamicInfoEED1Ev@Base 2.0.21
 _ZN7CommandI11BattleScene10BattleEnumLS1_41EIRiR17BattleDynamicInfoEED2Ev@Base 2.0.21
 _ZN7CommandI11BattleScene10BattleEnumLS1_42EIRiEE5applyEv@Base 2.0.21
 _ZN7CommandI11BattleScene10BattleEnumLS1_42EIRiEED0Ev@Base 2.0.21
 _ZN7CommandI11BattleScene10BattleEnumLS1_42EIRiEED1Ev@Base 2.0.21
 _ZN7CommandI11BattleScene10BattleEnumLS1_42EIRiEED2Ev@Base 2.0.21
 _ZN7CommandI11BattleScene10BattleEnumLS1_43EIRiEE5applyEv@Base 2.0.21
 _ZN7CommandI11BattleScene10BattleEnumLS1_43EIRiEED0Ev@Base 2.0.21
 _ZN7CommandI11BattleScene10BattleEnumLS1_43EIRiEED1Ev@Base 2.0.21
 _ZN7CommandI11BattleScene10BattleEnumLS1_43EIRiEED2Ev@Base 2.0.21
 _ZN7CommandI11BattleScene10BattleEnumLS1_44EIRiS2_EE5applyEv@Base 2.0.21
 _ZN7CommandI11BattleScene10BattleEnumLS1_44EIRiS2_EED0Ev@Base 2.0.21
 _ZN7CommandI11BattleScene10BattleEnumLS1_44EIRiS2_EED1Ev@Base 2.0.21
 _ZN7CommandI11BattleScene10BattleEnumLS1_44EIRiS2_EED2Ev@Base 2.0.21
 _ZN7CommandI11BattleScene10BattleEnumLS1_45EIRiS2_S2_EE5applyEv@Base 2.0.21
 _ZN7CommandI11BattleScene10BattleEnumLS1_45EIRiS2_S2_EED0Ev@Base 2.0.21
 _ZN7CommandI11BattleScene10BattleEnumLS1_45EIRiS2_S2_EED1Ev@Base 2.0.21
 _ZN7CommandI11BattleScene10BattleEnumLS1_45EIRiS2_S2_EED2Ev@Base 2.0.21
 _ZN7CommandI11BattleScene10BattleEnumLS1_46EIRiS2_EE5applyEv@Base 2.0.21
 _ZN7CommandI11BattleScene10BattleEnumLS1_46EIRiS2_EED0Ev@Base 2.0.21
 _ZN7CommandI11BattleScene10BattleEnumLS1_46EIRiS2_EED1Ev@Base 2.0.21
 _ZN7CommandI11BattleScene10BattleEnumLS1_46EIRiS2_EED2Ev@Base 2.0.21
 _ZN7CommandI11BattleScene10BattleEnumLS1_47EIRiS2_EE5applyEv@Base 2.0.21
 _ZN7CommandI11BattleScene10BattleEnumLS1_47EIRiS2_EED0Ev@Base 2.0.21
 _ZN7CommandI11BattleScene10BattleEnumLS1_47EIRiS2_EED1Ev@Base 2.0.21
 _ZN7CommandI11BattleScene10BattleEnumLS1_47EIRiS2_EED2Ev@Base 2.0.21
 _ZN7CommandI11BattleScene10BattleEnumLS1_48EIRiS2_EE5applyEv@Base 2.0.21
 _ZN7CommandI11BattleScene10BattleEnumLS1_48EIRiS2_EED0Ev@Base 2.0.21
 _ZN7CommandI11BattleScene10BattleEnumLS1_48EIRiS2_EED1Ev@Base 2.0.21
 _ZN7CommandI11BattleScene10BattleEnumLS1_48EIRiS2_EED2Ev@Base 2.0.21
 _ZN7CommandI11BattleScene10BattleEnumLS1_49EIRiS2_S2_RbEE5applyEv@Base 2.0.21
 _ZN7CommandI11BattleScene10BattleEnumLS1_49EIRiS2_S2_RbEED0Ev@Base 2.0.21
 _ZN7CommandI11BattleScene10BattleEnumLS1_49EIRiS2_S2_RbEED1Ev@Base 2.0.21
 _ZN7CommandI11BattleScene10BattleEnumLS1_49EIRiS2_S2_RbEED2Ev@Base 2.0.21
 _ZN7CommandI11BattleScene10BattleEnumLS1_4EIRiRbEE5applyEv@Base 2.0.21
 _ZN7CommandI11BattleScene10BattleEnumLS1_4EIRiRbEED0Ev@Base 2.0.21
 _ZN7CommandI11BattleScene10BattleEnumLS1_4EIRiRbEED1Ev@Base 2.0.21
 _ZN7CommandI11BattleScene10BattleEnumLS1_4EIRiRbEED2Ev@Base 2.0.21
 _ZN7CommandI11BattleScene10BattleEnumLS1_50EIRiS2_S2_EE5applyEv@Base 2.0.21
 _ZN7CommandI11BattleScene10BattleEnumLS1_50EIRiS2_S2_EED0Ev@Base 2.0.21
 _ZN7CommandI11BattleScene10BattleEnumLS1_50EIRiS2_S2_EED1Ev@Base 2.0.21
 _ZN7CommandI11BattleScene10BattleEnumLS1_50EIRiS2_S2_EED2Ev@Base 2.0.21
 _ZN7CommandI11BattleScene10BattleEnumLS1_51EIRiRPSt10shared_ptrI13BattleChoicesEEE5applyEv@Base 2.0.21
 _ZN7CommandI11BattleScene10BattleEnumLS1_51EIRiRPSt10shared_ptrI13BattleChoicesEEED0Ev@Base 2.0.21
 _ZN7CommandI11BattleScene10BattleEnumLS1_51EIRiRPSt10shared_ptrI13BattleChoicesEEED1Ev@Base 2.0.21
 _ZN7CommandI11BattleScene10BattleEnumLS1_51EIRiRPSt10shared_ptrI13BattleChoicesEEED2Ev@Base 2.0.21
 _ZN7CommandI11BattleScene10BattleEnumLS1_52EIRiS2_S2_EE5applyEv@Base 2.0.21
 _ZN7CommandI11BattleScene10BattleEnumLS1_52EIRiS2_S2_EED0Ev@Base 2.0.21
 _ZN7CommandI11BattleScene10BattleEnumLS1_52EIRiS2_S2_EED1Ev@Base 2.0.21
 _ZN7CommandI11BattleScene10BattleEnumLS1_52EIRiS2_S2_EED2Ev@Base 2.0.21
 _ZN7CommandI11BattleScene10BattleEnumLS1_53EIRiS2_S2_RbEE5applyEv@Base 2.0.21
 _ZN7CommandI11BattleScene10BattleEnumLS1_53EIRiS2_S2_RbEED0Ev@Base 2.0.21
 _ZN7CommandI11BattleScene10BattleEnumLS1_53EIRiS2_S2_RbEED1Ev@Base 2.0.21
 _ZN7CommandI11BattleScene10BattleEnumLS1_53EIRiS2_S2_RbEED2Ev@Base 2.0.21
 _ZN7CommandI11BattleScene10BattleEnumLS1_54EIRiRPSt10shared_ptrI16ShallowShownTeamEEE5applyEv@Base 2.0.21
 _ZN7CommandI11BattleScene10BattleEnumLS1_54EIRiRPSt10shared_ptrI16ShallowShownTeamEEED0Ev@Base 2.0.21
 _ZN7CommandI11BattleScene10BattleEnumLS1_54EIRiRPSt10shared_ptrI16ShallowShownTeamEEED1Ev@Base 2.0.21
 _ZN7CommandI11BattleScene10BattleEnumLS1_54EIRiRPSt10shared_ptrI16ShallowShownTeamEEED2Ev@Base 2.0.21
 _ZN7CommandI11BattleScene10BattleEnumLS1_55EIRiEE5applyEv@Base 2.0.21
 _ZN7CommandI11BattleScene10BattleEnumLS1_55EIRiEED0Ev@Base 2.0.21
 _ZN7CommandI11BattleScene10BattleEnumLS1_55EIRiEED1Ev@Base 2.0.21
 _ZN7CommandI11BattleScene10BattleEnumLS1_55EIRiEED2Ev@Base 2.0.21
 _ZN7CommandI11BattleScene10BattleEnumLS1_56EIRiEE5applyEv@Base 2.0.21
 _ZN7CommandI11BattleScene10BattleEnumLS1_56EIRiEED0Ev@Base 2.0.21
 _ZN7CommandI11BattleScene10BattleEnumLS1_56EIRiEED1Ev@Base 2.0.21
 _ZN7CommandI11BattleScene10BattleEnumLS1_56EIRiEED2Ev@Base 2.0.21
 _ZN7CommandI11BattleScene10BattleEnumLS1_57EIRiS2_S2_EE5applyEv@Base 2.0.21
 _ZN7CommandI11BattleScene10BattleEnumLS1_57EIRiS2_S2_EED0Ev@Base 2.0.21
 _ZN7CommandI11BattleScene10BattleEnumLS1_57EIRiS2_S2_EED1Ev@Base 2.0.21
 _ZN7CommandI11BattleScene10BattleEnumLS1_57EIRiS2_S2_EED2Ev@Base 2.0.21
 _ZN7CommandI11BattleScene10BattleEnumLS1_58EIRiRPSt10shared_ptrI11BattleStatsEEE5applyEv@Base 2.0.21
 _ZN7CommandI11BattleScene10BattleEnumLS1_58EIRiRPSt10shared_ptrI11BattleStatsEEED0Ev@Base 2.0.21
 _ZN7CommandI11BattleScene10BattleEnumLS1_58EIRiRPSt10shared_ptrI11BattleStatsEEED1Ev@Base 2.0.21
 _ZN7CommandI11BattleScene10BattleEnumLS1_58EIRiRPSt10shared_ptrI11BattleStatsEEED2Ev@Base 2.0.21
 _ZN7CommandI11BattleScene10BattleEnumLS1_59EIRPSt10shared_ptrI7QStringEEE5applyEv@Base 2.0.21
 _ZN7CommandI11BattleScene10BattleEnumLS1_59EIRPSt10shared_ptrI7QStringEEED0Ev@Base 2.0.21
 _ZN7CommandI11BattleScene10BattleEnumLS1_59EIRPSt10shared_ptrI7QStringEEED1Ev@Base 2.0.21
 _ZN7CommandI11BattleScene10BattleEnumLS1_59EIRPSt10shared_ptrI7QStringEEED2Ev@Base 2.0.21
 _ZN7CommandI11BattleScene10BattleEnumLS1_5EIRiS2_RbEE5applyEv@Base 2.0.21
 _ZN7CommandI11BattleScene10BattleEnumLS1_5EIRiS2_RbEED0Ev@Base 2.0.21
 _ZN7CommandI11BattleScene10BattleEnumLS1_5EIRiS2_RbEED1Ev@Base 2.0.21
 _ZN7CommandI11BattleScene10BattleEnumLS1_5EIRiS2_RbEED2Ev@Base 2.0.21
 _ZN7CommandI11BattleScene10BattleEnumLS1_60EIRiEE5applyEv@Base 2.0.21
 _ZN7CommandI11BattleScene10BattleEnumLS1_60EIRiEED0Ev@Base 2.0.21
 _ZN7CommandI11BattleScene10BattleEnumLS1_60EIRiEED1Ev@Base 2.0.21
 _ZN7CommandI11BattleScene10BattleEnumLS1_60EIRiEED2Ev@Base 2.0.21
 _ZN7CommandI11BattleScene10BattleEnumLS1_61EIRiEE5applyEv@Base 2.0.21
 _ZN7CommandI11BattleScene10BattleEnumLS1_61EIRiEED0Ev@Base 2.0.21
 _ZN7CommandI11BattleScene10BattleEnumLS1_61EIRiEED1Ev@Base 2.0.21
 _ZN7CommandI11BattleScene10BattleEnumLS1_61EIRiEED2Ev@Base 2.0.21
 _ZN7CommandI11BattleScene10BattleEnumLS1_62EIRiS2_S2_EE5applyEv@Base 2.0.21
 _ZN7CommandI11BattleScene10BattleEnumLS1_62EIRiS2_S2_EED0Ev@Base 2.0.21
 _ZN7CommandI11BattleScene10BattleEnumLS1_62EIRiS2_S2_EED1Ev@Base 2.0.21
 _ZN7CommandI11BattleScene10BattleEnumLS1_62EIRiS2_S2_EED2Ev@Base 2.0.21
 _ZN7CommandI11BattleScene10BattleEnumLS1_63EIRiS2_EE5applyEv@Base 2.0.21
 _ZN7CommandI11BattleScene10BattleEnumLS1_63EIRiS2_EED0Ev@Base 2.0.21
 _ZN7CommandI11BattleScene10BattleEnumLS1_63EIRiS2_EED1Ev@Base 2.0.21
 _ZN7CommandI11BattleScene10BattleEnumLS1_63EIRiS2_EED2Ev@Base 2.0.21
 _ZN7CommandI11BattleScene10BattleEnumLS1_64EIRiRPSt10shared_ptrI15RearrangeChoiceEEE5applyEv@Base 2.0.21
 _ZN7CommandI11BattleScene10BattleEnumLS1_64EIRiRPSt10shared_ptrI15RearrangeChoiceEEED0Ev@Base 2.0.21
 _ZN7CommandI11BattleScene10BattleEnumLS1_64EIRiRPSt10shared_ptrI15RearrangeChoiceEEED1Ev@Base 2.0.21
 _ZN7CommandI11BattleScene10BattleEnumLS1_64EIRiRPSt10shared_ptrI15RearrangeChoiceEEED2Ev@Base 2.0.21
 _ZN7CommandI11BattleScene10BattleEnumLS1_65EIRiEE5applyEv@Base 2.0.21
 _ZN7CommandI11BattleScene10BattleEnumLS1_65EIRiEED0Ev@Base 2.0.21
 _ZN7CommandI11BattleScene10BattleEnumLS1_65EIRiEED1Ev@Base 2.0.21
 _ZN7CommandI11BattleScene10BattleEnumLS1_65EIRiEED2Ev@Base 2.0.21
 _ZN7CommandI11BattleScene10BattleEnumLS1_66EIRiEE5applyEv@Base 2.0.21
 _ZN7CommandI11BattleScene10BattleEnumLS1_66EIRiEED0Ev@Base 2.0.21
 _ZN7CommandI11BattleScene10BattleEnumLS1_66EIRiEED1Ev@Base 2.0.21
 _ZN7CommandI11BattleScene10BattleEnumLS1_66EIRiEED2Ev@Base 2.0.21
 _ZN7CommandI11BattleScene10BattleEnumLS1_67EIRiEE5applyEv@Base 2.0.21
 _ZN7CommandI11BattleScene10BattleEnumLS1_67EIRiEED0Ev@Base 2.0.21
 _ZN7CommandI11BattleScene10BattleEnumLS1_67EIRiEED1Ev@Base 2.0.21
 _ZN7CommandI11BattleScene10BattleEnumLS1_67EIRiEED2Ev@Base 2.0.21
 _ZN7CommandI11BattleScene10BattleEnumLS1_68EIRiS2_EE5applyEv@Base 2.0.21
 _ZN7CommandI11BattleScene10BattleEnumLS1_68EIRiS2_EED0Ev@Base 2.0.21
 _ZN7CommandI11BattleScene10BattleEnumLS1_68EIRiS2_EED1Ev@Base 2.0.21
 _ZN7CommandI11BattleScene10BattleEnumLS1_68EIRiS2_EED2Ev@Base 2.0.21
 _ZN7CommandI11BattleScene10BattleEnumLS1_69EIRiS2_S2_EE5applyEv@Base 2.0.21
 _ZN7CommandI11BattleScene10BattleEnumLS1_69EIRiS2_S2_EED0Ev@Base 2.0.21
 _ZN7CommandI11BattleScene10BattleEnumLS1_69EIRiS2_S2_EED1Ev@Base 2.0.21
 _ZN7CommandI11BattleScene10BattleEnumLS1_69EIRiS2_S2_EED2Ev@Base 2.0.21
 _ZN7CommandI11BattleScene10BattleEnumLS1_6EIRiEE5applyEv@Base 2.0.21
 _ZN7CommandI11BattleScene10BattleEnumLS1_6EIRiEED0Ev@Base 2.0.21
 _ZN7CommandI11BattleScene10BattleEnumLS1_6EIRiEED1Ev@Base 2.0.21
 _ZN7CommandI11BattleScene10BattleEnumLS1_6EIRiEED2Ev@Base 2.0.21
 _ZN7CommandI11BattleScene10BattleEnumLS1_7EIRiS2_EE5applyEv@Base 2.0.21
 _ZN7CommandI11BattleScene10BattleEnumLS1_7EIRiS2_EED0Ev@Base 2.0.21
 _ZN7CommandI11BattleScene10BattleEnumLS1_7EIRiS2_EED1Ev@Base 2.0.21
 _ZN7CommandI11BattleScene10BattleEnumLS1_7EIRiS2_EED2Ev@Base 2.0.21
 _ZN7CommandI11BattleScene10BattleEnumLS1_8EIRiS2_EE5applyEv@Base 2.0.21
 _ZN7CommandI11BattleScene10BattleEnumLS1_8EIRiS2_EED0Ev@Base 2.0.21
 _ZN7CommandI11BattleScene10BattleEnumLS1_8EIRiS2_EED1Ev@Base 2.0.21
 _ZN7CommandI11BattleScene10BattleEnumLS1_8EIRiS2_EED2Ev@Base 2.0.21
 _ZN7CommandI11BattleScene10BattleEnumLS1_9EIRiEE5applyEv@Base 2.0.21
 _ZN7CommandI11BattleScene10BattleEnumLS1_9EIRiEED0Ev@Base 2.0.21
 _ZN7CommandI11BattleScene10BattleEnumLS1_9EIRiEED1Ev@Base 2.0.21
 _ZN7CommandI11BattleScene10BattleEnumLS1_9EIRiEED2Ev@Base 2.0.21
 _ZN7QStringD1Ev@Base 2.0.21
 _ZN7QStringD2Ev@Base 2.0.21
 _ZN7QVectorI7QStringE7reallocEii@Base 2.0.21
 _ZN7QVectorIP10QClickPBarE7reallocEii@Base 2.0.21
 _ZN7QVectorIP15AbstractCommandE7reallocEii@Base 2.0.21
 _ZN7QVectorIP15AbstractCommandED1Ev@Base 2.0.21
 _ZN7QVectorIP15AbstractCommandED2Ev@Base 2.0.21
 _ZN7QVectorIP19QGraphicsPixmapItemE7reallocEii@Base 2.0.21
 _ZN7QVectorIP19QGraphicsPixmapItemED1Ev@Base 2.0.21
 _ZN7QVectorIP19QGraphicsPixmapItemED2Ev@Base 2.0.21
 _ZN7QVectorIP6QLabelE6resizeEi@Base 2.0.21
 _ZN7QVectorIP6QLabelE7reallocEii@Base 2.0.21
 _ZN7QVectorIP6QLabelED1Ev@Base 2.0.21
 _ZN7QVectorIP6QLabelED2Ev@Base 2.0.21
 _ZN7QVectorIP9MoveProxyE6appendERKS1_@Base 2.0.21
 _ZN7QVectorIP9MoveProxyE7reallocEii@Base 2.0.21
 _ZN7QVectorIP9MoveProxyED1Ev@Base 2.0.21
 _ZN7QVectorIP9MoveProxyED2Ev@Base 2.0.21
 _ZN7QVectorIP9PokeProxyE6appendERKS1_@Base 2.0.21
 _ZN7QVectorIP9PokeProxyE7reallocEii@Base 2.0.21
 _ZN7QVectorIP9PokeProxyED1Ev@Base 2.0.21
 _ZN7QVectorIP9PokeProxyED2Ev@Base 2.0.21
 _ZN7QVectorIiE6appendERKi@Base 2.0.21
 _ZN7QVectorIiE7reallocEii@Base 2.0.21
 _ZN7QVectorIiED1Ev@Base 2.0.21
 _ZN7QVectorIiED2Ev@Base 2.0.21
 _ZN8TeamData10removeItemEi@Base 2.0.21
 _ZN8TeamData14switchPokemonsEii@Base 2.0.21
 _ZN8TeamData15changeItemCountEii@Base 2.0.21
 _ZN8TeamData4nameEv@Base 2.0.21
 _ZN8TeamData4pokeEi@Base 2.0.21
 _ZN8TeamData6setGenEN7Pokemon3genE@Base 2.0.21
 _ZN8TeamData7setPokeEiPK10PokeBattle@Base 2.0.21
 _ZN8TeamData7setPokeEiPK17ShallowBattlePoke@Base 2.0.21
 _ZN8TeamData7setTeamEPK10TeamBattle@Base 2.0.21
 _ZN8TeamData8setItemsERK5QHashIttE@Base 2.0.21
 _ZN8TeamDataC1EPK10TeamBattleb@Base 2.0.21
 _ZN8TeamDataC2EPK10TeamBattleb@Base 2.0.21
 _ZN8TeamDataD1Ev@Base 2.0.21
 _ZN8TeamDataD2Ev@Base 2.0.21
 _ZN9MoveProxy10numChangedEv@Base 2.0.21
 _ZN9MoveProxy11exposedDataEv@Base 2.0.21
 _ZN9MoveProxy11qt_metacallEN11QMetaObject4CallEiPPv@Base 2.0.21
 _ZN9MoveProxy11qt_metacastEPKc@Base 2.0.21
 _ZN9MoveProxy16staticMetaObjectE@Base 2.0.21
 _ZN9MoveProxy6setNumEi@Base 2.0.21
 _ZN9MoveProxy7adaptToEPK10BattleMove@Base 2.0.21
 _ZN9MoveProxy8changePPEi@Base 2.0.21
 _ZN9MoveProxy9PPChangedEv@Base 2.0.21
 _ZN9MoveProxyC1EP10BattleMove@Base 2.0.21
 _ZN9MoveProxyC1Ev@Base 2.0.21
 _ZN9MoveProxyC2EP10BattleMove@Base 2.0.21
 _ZN9MoveProxyC2Ev@Base 2.0.21
 _ZN9MoveProxyD0Ev@Base 2.0.21
 _ZN9MoveProxyD1Ev@Base 2.0.21
 _ZN9MoveProxyD2Ev@Base 2.0.21
 _ZN9PokeProxy10numChangedEv@Base 2.0.21
 _ZN9PokeProxy11itemChangedEv@Base 2.0.21
 _ZN9PokeProxy11lifeChangedEv@Base 2.0.21
 _ZN9PokeProxy11qt_metacallEN11QMetaObject4CallEiPPv@Base 2.0.21
 _ZN9PokeProxy11qt_metacastEPKc@Base 2.0.21
 _ZN9PokeProxy12changeStatusEi@Base 2.0.21
 _ZN9PokeProxy12pokemonResetEv@Base 2.0.21
 _ZN9PokeProxy13statusChangedEv@Base 2.0.21
 _ZN9PokeProxy16staticMetaObjectE@Base 2.0.21
 _ZN9PokeProxy2koEv@Base 2.0.21
 _ZN9PokeProxy6setNumEN7Pokemon8uniqueIdE@Base 2.0.21
 _ZN9PokeProxy7adaptToEPK10PokeBattle@Base 2.0.21
 _ZN9PokeProxy7adaptToEPK17ShallowBattlePokeb@Base 2.0.21
 _ZN9PokeProxy7setItemEi@Base 2.0.21
 _ZN9PokeProxy7setLifeEi@Base 2.0.21
 _ZN9PokeProxy9emitResetEv@Base 2.0.21
 _ZN9PokeProxyC1EP17ShallowBattlePoke@Base 2.0.21
 _ZN9PokeProxyC1Ev@Base 2.0.21
 _ZN9PokeProxyC2EP17ShallowBattlePoke@Base 2.0.21
 _ZN9PokeProxyC2Ev@Base 2.0.21
 _ZN9PokeProxyD0Ev@Base 2.0.21
 _ZN9PokeProxyD1Ev@Base 2.0.21
 _ZN9PokeProxyD2Ev@Base 2.0.21
 _ZN9TeamProxy10removeItemEi@Base 2.0.21
 _ZN9TeamProxy11qt_metacallEN11QMetaObject4CallEiPPv@Base 2.0.21
 _ZN9TeamProxy11qt_metacastEPKc@Base 2.0.21
 _ZN9TeamProxy11setTimeLeftEib@Base 2.0.21
 _ZN9TeamProxy11timeChangedEv@Base 2.0.21
 _ZN9TeamProxy14switchPokemonsEii@Base 2.0.21
 _ZN9TeamProxy15changeItemCountEii@Base 2.0.21
 _ZN9TeamProxy15pokemonsSwappedEii@Base 2.0.21
 _ZN9TeamProxy16staticMetaObjectE@Base 2.0.21
 _ZN9TeamProxy5itemsEv@Base 2.0.21
 _ZN9TeamProxy7setNameERK7QString@Base 2.0.21
 _ZN9TeamProxy7setPokeEiP17ShallowBattlePokeb@Base 2.0.21
 _ZN9TeamProxy7setTeamEPK10TeamBattle@Base 2.0.21
 _ZN9TeamProxyC1EP8TeamData@Base 2.0.21
 _ZN9TeamProxyC1Ev@Base 2.0.21
 _ZN9TeamProxyC2EP8TeamData@Base 2.0.21
 _ZN9TeamProxyC2Ev@Base 2.0.21
 _ZN9TeamProxyD0Ev@Base 2.0.21
 _ZN9TeamProxyD1Ev@Base 2.0.21
 _ZN9TeamProxyD2Ev@Base 2.0.21
 _ZN9ZoneProxy10setHazardsEh@Base 2.0.21
 _ZN9ZoneProxy11qt_metacallEN11QMetaObject4CallEiPPv@Base 2.0.21
 _ZN9ZoneProxy11qt_metacastEPKc@Base 2.0.21
 _ZN9ZoneProxy12rocksChangedEv@Base 2.0.21
 _ZN9ZoneProxy13spikesChangedEv@Base 2.0.21
 _ZN9ZoneProxy14setSpikesLevelEi@Base 2.0.21
 _ZN9ZoneProxy14tspikesChangedEv@Base 2.0.21
 _ZN9ZoneProxy15setStealthRocksEb@Base 2.0.21
 _ZN9ZoneProxy16staticMetaObjectE@Base 2.0.21
 _ZN9ZoneProxy19setToxicSpikesLevelEi@Base 2.0.21
 _ZN9ZoneProxyC1Ev@Base 2.0.21
 _ZN9ZoneProxyC2Ev@Base 2.0.21
 _ZN9ZoneProxyD0Ev@Base 2.0.21
 _ZN9ZoneProxyD1Ev@Base 2.0.21
 _ZN9ZoneProxyD2Ev@Base 2.0.21
 _ZNK10FieldProxy10metaObjectEv@Base 2.0.21
 _ZNK10PokeBattle11lifePercentEv@Base 2.0.21
 _ZNK10PokeBattle4lifeEv@Base 2.0.21
 _ZNK10PokeBattle9totalLifeEv@Base 2.0.21
 _ZNK11BattleScene10metaObjectEv@Base 2.0.21
 _ZNK11BattleScene5widthEv@Base 2.0.21
 _ZNK11BattleScene6heightEv@Base 2.0.21
 _ZNK11BattleScene6optionERK7QStringRK8QVariant@Base 2.0.21
 _ZNK12GraphicsZone3keyEN7Pokemon8uniqueIdEbbhb@Base 2.0.21
 _ZNK12GraphicsZone6myselfEv@Base 2.0.21
 _ZNK12GraphicsZone8opponentEv@Base 2.0.21
 _ZNK12GraphicsZone8reversedEv@Base 2.0.21
 _ZNK15BattleClientLog10metaObjectEv@Base 2.0.21
 _ZNK16AuxPokeDataProxy10metaObjectEv@Base 2.0.21
 _ZNK16BattleSceneProxy10metaObjectEv@Base 2.0.21
 _ZNK16MoveInfoAccessor10metaObjectEv@Base 2.0.21
 _ZNK18BattleDefaultTheme10metaObjectEv@Base 2.0.21
 _ZNK18ProxyDataContainer10metaObjectEv@Base 2.0.21
 _ZNK18RegularBattleScene10metaObjectEv@Base 2.0.21
 _ZNK18RegularBattleScene4dataEv@Base 2.0.21
 _ZNK18RegularBattleScene4nickEi@Base 2.0.21
 _ZNK18RegularBattleScene6myselfEv@Base 2.0.21
 _ZNK18RegularBattleScene8isPlayerEi@Base 2.0.21
 _ZNK18RegularBattleScene8opponentEv@Base 2.0.21
 _ZNK18RegularBattleScene8reversedEv@Base 2.0.21
 _ZNK19PokemonInfoAccessor10metaObjectEv@Base 2.0.21
 _ZNK4QMapI7QString8QVariantE15mutableFindNodeEPPN8QMapData4NodeERKS0_@Base 2.0.21
 _ZNK7CommandI11BattleInput10BattleEnumLS1_0EIRiS2_EE3valEv@Base 2.0.21
 _ZNK7CommandI11BattleInput10BattleEnumLS1_10EIRiEE3valEv@Base 2.0.21
 _ZNK7CommandI11BattleInput10BattleEnumLS1_11EIRiEE3valEv@Base 2.0.21
 _ZNK7CommandI11BattleInput10BattleEnumLS1_12EIRiS2_S2_RbEE3valEv@Base 2.0.21
 _ZNK7CommandI11BattleInput10BattleEnumLS1_13EIRiS2_RbS3_EE3valEv@Base 2.0.21
 _ZNK7CommandI11BattleInput10BattleEnumLS1_14EIRiS2_S2_EE3valEv@Base 2.0.21
 _ZNK7CommandI11BattleInput10BattleEnumLS1_15EIRiS2_EE3valEv@Base 2.0.21
 _ZNK7CommandI11BattleInput10BattleEnumLS1_16EIRiS2_EE3valEv@Base 2.0.21
 _ZNK7CommandI11BattleInput10BattleEnumLS1_17EIRiS2_EE3valEv@Base 2.0.21
 _ZNK7CommandI11BattleInput10BattleEnumLS1_18EIRiS2_EE3valEv@Base 2.0.21
 _ZNK7CommandI11BattleInput10BattleEnumLS1_19EIRiRbEE3valEv@Base 2.0.21
 _ZNK7CommandI11BattleInput10BattleEnumLS1_1EIRiS2_EE3valEv@Base 2.0.21
 _ZNK7CommandI11BattleInput10BattleEnumLS1_20EIRiRPSt10shared_ptrI7QStringEEE3valEv@Base 2.0.21
 _ZNK7CommandI11BattleInput10BattleEnumLS1_21EIRiRPSt10shared_ptrI7QStringEEE3valEv@Base 2.0.21
 _ZNK7CommandI11BattleInput10BattleEnumLS1_22EIRiEE3valEv@Base 2.0.21
 _ZNK7CommandI11BattleInput10BattleEnumLS1_23EIRiRPSt10shared_ptrI7QStringEEE3valEv@Base 2.0.21
 _ZNK7CommandI11BattleInput10BattleEnumLS1_24EIRiS2_S2_S2_S2_S2_RPSt10shared_ptrI7QStringEEE3valEv@Base 2.0.21
 _ZNK7CommandI11BattleInput10BattleEnumLS1_25EIRiEE3valEv@Base 2.0.21
 _ZNK7CommandI11BattleInput10BattleEnumLS1_26EIRiS2_S2_S2_S2_S2_EE3valEv@Base 2.0.21
 _ZNK7CommandI11BattleInput10BattleEnumLS1_27EIRiEE3valEv@Base 2.0.21
 _ZNK7CommandI11BattleInput10BattleEnumLS1_28EIRiEE3valEv@Base 2.0.21
 _ZNK7CommandI11BattleInput10BattleEnumLS1_29EIRiEE3valEv@Base 2.0.21
 _ZNK7CommandI11BattleInput10BattleEnumLS1_2EIRhEE3valEv@Base 2.0.21
 _ZNK7CommandI11BattleInput10BattleEnumLS1_30EIRiS2_RbEE3valEv@Base 2.0.21
 _ZNK7CommandI11BattleInput10BattleEnumLS1_31EIRiEE3valEv@Base 2.0.21
 _ZNK7CommandI11BattleInput10BattleEnumLS1_32EIRiEE3valEv@Base 2.0.21
 _ZNK7CommandI11BattleInput10BattleEnumLS1_33EIRiS2_EE3valEv@Base 2.0.21
 _ZNK7CommandI11BattleInput10BattleEnumLS1_34EIRiS2_S2_S2_S2_S2_EE3valEv@Base 2.0.21
 _ZNK7CommandI11BattleInput10BattleEnumLS1_35EIRiRbEE3valEv@Base 2.0.21
 _ZNK7CommandI11BattleInput10BattleEnumLS1_36EIRiS2_EE3valEv@Base 2.0.21
 _ZNK7CommandI11BattleInput10BattleEnumLS1_37EIEE3valEv@Base 2.0.21
 _ZNK7CommandI11BattleInput10BattleEnumLS1_38EIRiEE3valEv@Base 2.0.21
 _ZNK7CommandI11BattleInput10BattleEnumLS1_39EIRbEE3valEv@Base 2.0.21
 _ZNK7CommandI11BattleInput10BattleEnumLS1_3EIRhS2_RPSt10shared_ptrI17ShallowBattlePokeERbEE3valEv@Base 2.0.21
 _ZNK7CommandI11BattleInput10BattleEnumLS1_40EIRPSt10shared_ptrI7QStringEEE3valEv@Base 2.0.21
 _ZNK7CommandI11BattleInput10BattleEnumLS1_41EIRiR17BattleDynamicInfoEE3valEv@Base 2.0.21
 _ZNK7CommandI11BattleInput10BattleEnumLS1_42EIRiEE3valEv@Base 2.0.21
 _ZNK7CommandI11BattleInput10BattleEnumLS1_43EIRiEE3valEv@Base 2.0.21
 _ZNK7CommandI11BattleInput10BattleEnumLS1_44EIRiS2_EE3valEv@Base 2.0.21
 _ZNK7CommandI11BattleInput10BattleEnumLS1_45EIRiS2_S2_EE3valEv@Base 2.0.21
 _ZNK7CommandI11BattleInput10BattleEnumLS1_46EIRiS2_EE3valEv@Base 2.0.21
 _ZNK7CommandI11BattleInput10BattleEnumLS1_47EIRiS2_EE3valEv@Base 2.0.21
 _ZNK7CommandI11BattleInput10BattleEnumLS1_48EIRiS2_EE3valEv@Base 2.0.21
 _ZNK7CommandI11BattleInput10BattleEnumLS1_49EIRiS2_S2_RbEE3valEv@Base 2.0.21
 _ZNK7CommandI11BattleInput10BattleEnumLS1_4EIRiRbEE3valEv@Base 2.0.21
 _ZNK7CommandI11BattleInput10BattleEnumLS1_50EIRiS2_S2_EE3valEv@Base 2.0.21
 _ZNK7CommandI11BattleInput10BattleEnumLS1_51EIRiRPSt10shared_ptrI13BattleChoicesEEE3valEv@Base 2.0.21
 _ZNK7CommandI11BattleInput10BattleEnumLS1_52EIRiS2_S2_EE3valEv@Base 2.0.21
 _ZNK7CommandI11BattleInput10BattleEnumLS1_53EIRiS2_S2_RbEE3valEv@Base 2.0.21
 _ZNK7CommandI11BattleInput10BattleEnumLS1_54EIRiRPSt10shared_ptrI16ShallowShownTeamEEE3valEv@Base 2.0.21
 _ZNK7CommandI11BattleInput10BattleEnumLS1_55EIRiEE3valEv@Base 2.0.21
 _ZNK7CommandI11BattleInput10BattleEnumLS1_56EIRiEE3valEv@Base 2.0.21
 _ZNK7CommandI11BattleInput10BattleEnumLS1_57EIRiS2_S2_EE3valEv@Base 2.0.21
 _ZNK7CommandI11BattleInput10BattleEnumLS1_58EIRiRPSt10shared_ptrI11BattleStatsEEE3valEv@Base 2.0.21
 _ZNK7CommandI11BattleInput10BattleEnumLS1_59EIRPSt10shared_ptrI7QStringEEE3valEv@Base 2.0.21
 _ZNK7CommandI11BattleInput10BattleEnumLS1_5EIRiS2_RbEE3valEv@Base 2.0.21
 _ZNK7CommandI11BattleInput10BattleEnumLS1_60EIRiEE3valEv@Base 2.0.21
 _ZNK7CommandI11BattleInput10BattleEnumLS1_61EIRiEE3valEv@Base 2.0.21
 _ZNK7CommandI11BattleInput10BattleEnumLS1_62EIRiS2_S2_EE3valEv@Base 2.0.21
 _ZNK7CommandI11BattleInput10BattleEnumLS1_63EIRiS2_EE3valEv@Base 2.0.21
 _ZNK7CommandI11BattleInput10BattleEnumLS1_64EIRiRPSt10shared_ptrI15RearrangeChoiceEEE3valEv@Base 2.0.21
 _ZNK7CommandI11BattleInput10BattleEnumLS1_65EIRiEE3valEv@Base 2.0.21
 _ZNK7CommandI11BattleInput10BattleEnumLS1_66EIRiEE3valEv@Base 2.0.21
 _ZNK7CommandI11BattleInput10BattleEnumLS1_67EIRiEE3valEv@Base 2.0.21
 _ZNK7CommandI11BattleInput10BattleEnumLS1_68EIRiS2_EE3valEv@Base 2.0.21
 _ZNK7CommandI11BattleInput10BattleEnumLS1_69EIRiS2_S2_EE3valEv@Base 2.0.21
 _ZNK7CommandI11BattleInput10BattleEnumLS1_6EIRiEE3valEv@Base 2.0.21
 _ZNK7CommandI11BattleInput10BattleEnumLS1_7EIRiS2_EE3valEv@Base 2.0.21
 _ZNK7CommandI11BattleInput10BattleEnumLS1_8EIRiS2_EE3valEv@Base 2.0.21
 _ZNK7CommandI11BattleInput10BattleEnumLS1_9EIRiEE3valEv@Base 2.0.21
 _ZNK7CommandI11BattleScene10BattleEnumLS1_0EIRiS2_EE3valEv@Base 2.0.21
 _ZNK7CommandI11BattleScene10BattleEnumLS1_10EIRiEE3valEv@Base 2.0.21
 _ZNK7CommandI11BattleScene10BattleEnumLS1_11EIRiEE3valEv@Base 2.0.21
 _ZNK7CommandI11BattleScene10BattleEnumLS1_12EIRiS2_S2_RbEE3valEv@Base 2.0.21
 _ZNK7CommandI11BattleScene10BattleEnumLS1_13EIRiS2_RbS3_EE3valEv@Base 2.0.21
 _ZNK7CommandI11BattleScene10BattleEnumLS1_14EIRiS2_S2_EE3valEv@Base 2.0.21
 _ZNK7CommandI11BattleScene10BattleEnumLS1_15EIRiS2_EE3valEv@Base 2.0.21
 _ZNK7CommandI11BattleScene10BattleEnumLS1_16EIRiS2_EE3valEv@Base 2.0.21
 _ZNK7CommandI11BattleScene10BattleEnumLS1_17EIRiS2_EE3valEv@Base 2.0.21
 _ZNK7CommandI11BattleScene10BattleEnumLS1_18EIRiS2_EE3valEv@Base 2.0.21
 _ZNK7CommandI11BattleScene10BattleEnumLS1_19EIRiRbEE3valEv@Base 2.0.21
 _ZNK7CommandI11BattleScene10BattleEnumLS1_1EIRiS2_EE3valEv@Base 2.0.21
 _ZNK7CommandI11BattleScene10BattleEnumLS1_20EIRiRPSt10shared_ptrI7QStringEEE3valEv@Base 2.0.21
 _ZNK7CommandI11BattleScene10BattleEnumLS1_21EIRiRPSt10shared_ptrI7QStringEEE3valEv@Base 2.0.21
 _ZNK7CommandI11BattleScene10BattleEnumLS1_22EIRiEE3valEv@Base 2.0.21
 _ZNK7CommandI11BattleScene10BattleEnumLS1_23EIRiRPSt10shared_ptrI7QStringEEE3valEv@Base 2.0.21
 _ZNK7CommandI11BattleScene10BattleEnumLS1_24EIRiS2_S2_S2_S2_S2_RPSt10shared_ptrI7QStringEEE3valEv@Base 2.0.21
 _ZNK7CommandI11BattleScene10BattleEnumLS1_25EIRiEE3valEv@Base 2.0.21
 _ZNK7CommandI11BattleScene10BattleEnumLS1_26EIRiS2_S2_S2_S2_S2_EE3valEv@Base 2.0.21
 _ZNK7CommandI11BattleScene10BattleEnumLS1_27EIRiEE3valEv@Base 2.0.21
 _ZNK7CommandI11BattleScene10BattleEnumLS1_28EIRiEE3valEv@Base 2.0.21
 _ZNK7CommandI11BattleScene10BattleEnumLS1_29EIRiEE3valEv@Base 2.0.21
 _ZNK7CommandI11BattleScene10BattleEnumLS1_2EIRhEE3valEv@Base 2.0.21
 _ZNK7CommandI11BattleScene10BattleEnumLS1_30EIRiS2_RbEE3valEv@Base 2.0.21
 _ZNK7CommandI11BattleScene10BattleEnumLS1_31EIRiEE3valEv@Base 2.0.21
 _ZNK7CommandI11BattleScene10BattleEnumLS1_32EIRiEE3valEv@Base 2.0.21
 _ZNK7CommandI11BattleScene10BattleEnumLS1_33EIRiS2_EE3valEv@Base 2.0.21
 _ZNK7CommandI11BattleScene10BattleEnumLS1_34EIRiS2_S2_S2_S2_S2_EE3valEv@Base 2.0.21
 _ZNK7CommandI11BattleScene10BattleEnumLS1_35EIRiRbEE3valEv@Base 2.0.21
 _ZNK7CommandI11BattleScene10BattleEnumLS1_36EIRiS2_EE3valEv@Base 2.0.21
 _ZNK7CommandI11BattleScene10BattleEnumLS1_37EIEE3valEv@Base 2.0.21
 _ZNK7CommandI11BattleScene10BattleEnumLS1_38EIRiEE3valEv@Base 2.0.21
 _ZNK7CommandI11BattleScene10BattleEnumLS1_39EIRbEE3valEv@Base 2.0.21
 _ZNK7CommandI11BattleScene10BattleEnumLS1_3EIRhS2_RPSt10shared_ptrI17ShallowBattlePokeERbEE3valEv@Base 2.0.21
 _ZNK7CommandI11BattleScene10BattleEnumLS1_40EIRPSt10shared_ptrI7QStringEEE3valEv@Base 2.0.21
 _ZNK7CommandI11BattleScene10BattleEnumLS1_41EIRiR17BattleDynamicInfoEE3valEv@Base 2.0.21
 _ZNK7CommandI11BattleScene10BattleEnumLS1_42EIRiEE3valEv@Base 2.0.21
 _ZNK7CommandI11BattleScene10BattleEnumLS1_43EIRiEE3valEv@Base 2.0.21
 _ZNK7CommandI11BattleScene10BattleEnumLS1_44EIRiS2_EE3valEv@Base 2.0.21
 _ZNK7CommandI11BattleScene10BattleEnumLS1_45EIRiS2_S2_EE3valEv@Base 2.0.21
 _ZNK7CommandI11BattleScene10BattleEnumLS1_46EIRiS2_EE3valEv@Base 2.0.21
 _ZNK7CommandI11BattleScene10BattleEnumLS1_47EIRiS2_EE3valEv@Base 2.0.21
 _ZNK7CommandI11BattleScene10BattleEnumLS1_48EIRiS2_EE3valEv@Base 2.0.21
 _ZNK7CommandI11BattleScene10BattleEnumLS1_49EIRiS2_S2_RbEE3valEv@Base 2.0.21
 _ZNK7CommandI11BattleScene10BattleEnumLS1_4EIRiRbEE3valEv@Base 2.0.21
 _ZNK7CommandI11BattleScene10BattleEnumLS1_50EIRiS2_S2_EE3valEv@Base 2.0.21
 _ZNK7CommandI11BattleScene10BattleEnumLS1_51EIRiRPSt10shared_ptrI13BattleChoicesEEE3valEv@Base 2.0.21
 _ZNK7CommandI11BattleScene10BattleEnumLS1_52EIRiS2_S2_EE3valEv@Base 2.0.21
 _ZNK7CommandI11BattleScene10BattleEnumLS1_53EIRiS2_S2_RbEE3valEv@Base 2.0.21
 _ZNK7CommandI11BattleScene10BattleEnumLS1_54EIRiRPSt10shared_ptrI16ShallowShownTeamEEE3valEv@Base 2.0.21
 _ZNK7CommandI11BattleScene10BattleEnumLS1_55EIRiEE3valEv@Base 2.0.21
 _ZNK7CommandI11BattleScene10BattleEnumLS1_56EIRiEE3valEv@Base 2.0.21
 _ZNK7CommandI11BattleScene10BattleEnumLS1_57EIRiS2_S2_EE3valEv@Base 2.0.21
 _ZNK7CommandI11BattleScene10BattleEnumLS1_58EIRiRPSt10shared_ptrI11BattleStatsEEE3valEv@Base 2.0.21
 _ZNK7CommandI11BattleScene10BattleEnumLS1_59EIRPSt10shared_ptrI7QStringEEE3valEv@Base 2.0.21
 _ZNK7CommandI11BattleScene10BattleEnumLS1_5EIRiS2_RbEE3valEv@Base 2.0.21
 _ZNK7CommandI11BattleScene10BattleEnumLS1_60EIRiEE3valEv@Base 2.0.21
 _ZNK7CommandI11BattleScene10BattleEnumLS1_61EIRiEE3valEv@Base 2.0.21
 _ZNK7CommandI11BattleScene10BattleEnumLS1_62EIRiS2_S2_EE3valEv@Base 2.0.21
 _ZNK7CommandI11BattleScene10BattleEnumLS1_63EIRiS2_EE3valEv@Base 2.0.21
 _ZNK7CommandI11BattleScene10BattleEnumLS1_64EIRiRPSt10shared_ptrI15RearrangeChoiceEEE3valEv@Base 2.0.21
 _ZNK7CommandI11BattleScene10BattleEnumLS1_65EIRiEE3valEv@Base 2.0.21
 _ZNK7CommandI11BattleScene10BattleEnumLS1_66EIRiEE3valEv@Base 2.0.21
 _ZNK7CommandI11BattleScene10BattleEnumLS1_67EIRiEE3valEv@Base 2.0.21
 _ZNK7CommandI11BattleScene10BattleEnumLS1_68EIRiS2_EE3valEv@Base 2.0.21
 _ZNK7CommandI11BattleScene10BattleEnumLS1_69EIRiS2_S2_EE3valEv@Base 2.0.21
 _ZNK7CommandI11BattleScene10BattleEnumLS1_6EIRiEE3valEv@Base 2.0.21
 _ZNK7CommandI11BattleScene10BattleEnumLS1_7EIRiS2_EE3valEv@Base 2.0.21
 _ZNK7CommandI11BattleScene10BattleEnumLS1_8EIRiS2_EE3valEv@Base 2.0.21
 _ZNK7CommandI11BattleScene10BattleEnumLS1_9EIRiEE3valEv@Base 2.0.21
 _ZNK8TeamData4nameEv@Base 2.0.21
 _ZNK9MoveProxy10metaObjectEv@Base 2.0.21
 _ZNK9MoveProxy11exposedDataEv@Base 2.0.21
 _ZNK9MoveProxy3genEv@Base 2.0.21
 _ZNK9MoveProxy6masterEv@Base 2.0.21
 _ZNK9PokeProxy10metaObjectEv@Base 2.0.21
 _ZNK9PokeProxy2evEi@Base 2.0.21
 _ZNK9PokeProxy2ivEi@Base 2.0.21
 _ZNK9PokeProxy3genEv@Base 2.0.21
 _ZNK9PokeProxy6masterEv@Base 2.0.21
 _ZNK9PokeProxy8basestatEi@Base 2.0.21
 _ZNK9TeamProxy10metaObjectEv@Base 2.0.21
 _ZNK9TeamProxy3genEv@Base 2.0.21
 _ZNK9TeamProxy4nameEv@Base 2.0.21
 _ZNK9TeamProxy4timeEv@Base 2.0.21
 _ZNK9TeamProxy7tickingEv@Base 2.0.21
 _ZNK9ZoneProxy10metaObjectEv@Base 2.0.21
 _ZNSt14__shared_countILN9__gnu_cxx12_Lock_policyE2EED1Ev@Base 2.0.21
 _ZNSt14__shared_countILN9__gnu_cxx12_Lock_policyE2EED2Ev@Base 2.0.21
 _ZNSt15_Sp_counted_ptrIP11BattleStatsLN9__gnu_cxx12_Lock_policyE2EE10_M_destroyEv@Base 2.0.21
 _ZNSt15_Sp_counted_ptrIP11BattleStatsLN9__gnu_cxx12_Lock_policyE2EE10_M_disposeEv@Base 2.0.21
 _ZNSt15_Sp_counted_ptrIP11BattleStatsLN9__gnu_cxx12_Lock_policyE2EE14_M_get_deleterERKSt9type_info@Base 2.0.21
 _ZNSt15_Sp_counted_ptrIP11BattleStatsLN9__gnu_cxx12_Lock_policyE2EED0Ev@Base 2.0.21
 _ZNSt15_Sp_counted_ptrIP11BattleStatsLN9__gnu_cxx12_Lock_policyE2EED1Ev@Base 2.0.21
 _ZNSt15_Sp_counted_ptrIP11BattleStatsLN9__gnu_cxx12_Lock_policyE2EED2Ev@Base 2.0.21
 _ZNSt15_Sp_counted_ptrIP13BattleChoicesLN9__gnu_cxx12_Lock_policyE2EE10_M_destroyEv@Base 2.0.21
 _ZNSt15_Sp_counted_ptrIP13BattleChoicesLN9__gnu_cxx12_Lock_policyE2EE10_M_disposeEv@Base 2.0.21
 _ZNSt15_Sp_counted_ptrIP13BattleChoicesLN9__gnu_cxx12_Lock_policyE2EE14_M_get_deleterERKSt9type_info@Base 2.0.21
 _ZNSt15_Sp_counted_ptrIP13BattleChoicesLN9__gnu_cxx12_Lock_policyE2EED0Ev@Base 2.0.21
 _ZNSt15_Sp_counted_ptrIP13BattleChoicesLN9__gnu_cxx12_Lock_policyE2EED1Ev@Base 2.0.21
 _ZNSt15_Sp_counted_ptrIP13BattleChoicesLN9__gnu_cxx12_Lock_policyE2EED2Ev@Base 2.0.21
 _ZNSt15_Sp_counted_ptrIP15RearrangeChoiceLN9__gnu_cxx12_Lock_policyE2EE10_M_destroyEv@Base 2.0.21
 _ZNSt15_Sp_counted_ptrIP15RearrangeChoiceLN9__gnu_cxx12_Lock_policyE2EE10_M_disposeEv@Base 2.0.21
 _ZNSt15_Sp_counted_ptrIP15RearrangeChoiceLN9__gnu_cxx12_Lock_policyE2EE14_M_get_deleterERKSt9type_info@Base 2.0.21
 _ZNSt15_Sp_counted_ptrIP15RearrangeChoiceLN9__gnu_cxx12_Lock_policyE2EED0Ev@Base 2.0.21
 _ZNSt15_Sp_counted_ptrIP15RearrangeChoiceLN9__gnu_cxx12_Lock_policyE2EED1Ev@Base 2.0.21
 _ZNSt15_Sp_counted_ptrIP15RearrangeChoiceLN9__gnu_cxx12_Lock_policyE2EED2Ev@Base 2.0.21
 _ZNSt15_Sp_counted_ptrIP16ShallowShownTeamLN9__gnu_cxx12_Lock_policyE2EE10_M_destroyEv@Base 2.0.21
 _ZNSt15_Sp_counted_ptrIP16ShallowShownTeamLN9__gnu_cxx12_Lock_policyE2EE10_M_disposeEv@Base 2.0.21
 _ZNSt15_Sp_counted_ptrIP16ShallowShownTeamLN9__gnu_cxx12_Lock_policyE2EE14_M_get_deleterERKSt9type_info@Base 2.0.21
 _ZNSt15_Sp_counted_ptrIP16ShallowShownTeamLN9__gnu_cxx12_Lock_policyE2EED0Ev@Base 2.0.21
 _ZNSt15_Sp_counted_ptrIP16ShallowShownTeamLN9__gnu_cxx12_Lock_policyE2EED1Ev@Base 2.0.21
 _ZNSt15_Sp_counted_ptrIP16ShallowShownTeamLN9__gnu_cxx12_Lock_policyE2EED2Ev@Base 2.0.21
 _ZNSt15_Sp_counted_ptrIP17ShallowBattlePokeLN9__gnu_cxx12_Lock_policyE2EE10_M_destroyEv@Base 2.0.21
 _ZNSt15_Sp_counted_ptrIP17ShallowBattlePokeLN9__gnu_cxx12_Lock_policyE2EE10_M_disposeEv@Base 2.0.21
 _ZNSt15_Sp_counted_ptrIP17ShallowBattlePokeLN9__gnu_cxx12_Lock_policyE2EE14_M_get_deleterERKSt9type_info@Base 2.0.21
 _ZNSt15_Sp_counted_ptrIP17ShallowBattlePokeLN9__gnu_cxx12_Lock_policyE2EED0Ev@Base 2.0.21
 _ZNSt15_Sp_counted_ptrIP17ShallowBattlePokeLN9__gnu_cxx12_Lock_policyE2EED1Ev@Base 2.0.21
 _ZNSt15_Sp_counted_ptrIP17ShallowBattlePokeLN9__gnu_cxx12_Lock_policyE2EED2Ev@Base 2.0.21
 _ZNSt15_Sp_counted_ptrIP7QStringLN9__gnu_cxx12_Lock_policyE2EE10_M_destroyEv@Base 2.0.21
 _ZNSt15_Sp_counted_ptrIP7QStringLN9__gnu_cxx12_Lock_policyE2EE10_M_disposeEv@Base 2.0.21
 _ZNSt15_Sp_counted_ptrIP7QStringLN9__gnu_cxx12_Lock_policyE2EE14_M_get_deleterERKSt9type_info@Base 2.0.21
 _ZNSt15_Sp_counted_ptrIP7QStringLN9__gnu_cxx12_Lock_policyE2EED0Ev@Base 2.0.21
 _ZNSt15_Sp_counted_ptrIP7QStringLN9__gnu_cxx12_Lock_policyE2EED1Ev@Base 2.0.21
 _ZNSt15_Sp_counted_ptrIP7QStringLN9__gnu_cxx12_Lock_policyE2EED2Ev@Base 2.0.21
 _ZNSt16_Sp_counted_baseILN9__gnu_cxx12_Lock_policyE2EE10_M_destroyEv@Base 2.0.21
 _ZNSt16_Sp_counted_baseILN9__gnu_cxx12_Lock_policyE2EED0Ev@Base 2.0.21
 _ZNSt16_Sp_counted_baseILN9__gnu_cxx12_Lock_policyE2EED1Ev@Base 2.0.21
 _ZNSt16_Sp_counted_baseILN9__gnu_cxx12_Lock_policyE2EED2Ev@Base 2.0.21
 _ZNSt4listIP15AbstractCommandSaIS1_EE9push_backERKS1_@Base 2.0.21
 _ZNSt6vectorI10QByteArraySaIS0_EE13_M_insert_auxIIRKS0_EEEvN9__gnu_cxx17__normal_iteratorIPS0_S2_EEDpOT_@Base 2.0.21
 _ZNSt6vectorI10QByteArraySaIS0_EE13_M_insert_auxIIS0_EEEvN9__gnu_cxx17__normal_iteratorIPS0_S2_EEDpOT_@Base 2.0.21
 _ZNSt6vectorI10QByteArraySaIS0_EE9push_backEOS0_@Base 2.0.21
 _ZNSt6vectorI11AuxPokeDataSaIS0_EE17_M_default_appendEm@Base 2.0.21
 _ZNSt6vectorIP16AuxPokeDataProxySaIS1_EE13_M_insert_auxIIRKS1_EEEvN9__gnu_cxx17__normal_iteratorIPS1_S3_EEDpOT_@Base 2.0.21
 _ZNSt6vectorIP17ShallowBattlePokeSaIS1_EE13_M_insert_auxIIS1_EEEvN9__gnu_cxx17__normal_iteratorIPS1_S3_EEDpOT_@Base 2.0.21
 _ZNSt6vectorIP9ZoneProxySaIS1_EE13_M_insert_auxIIS1_EEEvN9__gnu_cxx17__normal_iteratorIPS1_S3_EEDpOT_@Base 2.0.21
 _ZTI10DataStream@Base 2.0.21
 _ZTI10FieldProxy@Base 2.0.21
 _ZTI10PokeBattle@Base 2.0.21
 _ZTI11BattleInput@Base 2.0.21
 _ZTI11BattleScene@Base 2.0.21
 _ZTI11CommandFlowI10BattleEnum11BattleInputE@Base 2.0.21
 _ZTI11CommandFlowI10BattleEnum14TestBattleDataE@Base 2.0.21
 _ZTI11CommandFlowI10BattleEnum15BattleClientLogE@Base 2.0.21
 _ZTI11CommandFlowI10BattleEnum18RegularBattleSceneE@Base 2.0.21
 _ZTI12GraphicsZone@Base 2.0.21
 _ZTI14CommandManagerI10BattleEnum11BattleInput15BattleExtracterIS1_E11CommandFlowIS0_S1_E20BattleCommandInvokerIS1_EE@Base 2.0.21
 _ZTI14CommandManagerI10BattleEnum11BattleScene15BattleExtracterIS1_E15BattleSceneFlowIS0_S1_E20BattleCommandInvokerIS1_EE@Base 2.0.21
 _ZTI14CommandManagerI10BattleEnum14TestBattleData15BattleExtracterIS1_E11CommandFlowIS0_S1_E20BattleCommandInvokerIS1_EE@Base 2.0.21
 _ZTI14CommandManagerI10BattleEnum15BattleClientLog15BattleExtracterIS1_E11CommandFlowIS0_S1_E20BattleCommandInvokerIS1_EE@Base 2.0.21
 _ZTI14CommandManagerI10BattleEnum18RegularBattleScene15BattleExtracterIS1_E11CommandFlowIS0_S1_E20BattleCommandInvokerIS1_EE@Base 2.0.21
 _ZTI14TestBattleData@Base 2.0.21
 _ZTI15AbstractCommand@Base 2.0.21
 _ZTI15BattleClientLog@Base 2.0.21
 _ZTI15BattleExtracterI11BattleInputE@Base 2.0.21
 _ZTI15BattleExtracterI11BattleSceneE@Base 2.0.21
 _ZTI15BattleExtracterI14TestBattleDataE@Base 2.0.21
 _ZTI15BattleExtracterI15BattleClientLogE@Base 2.0.21
 _ZTI15BattleExtracterI18RegularBattleSceneE@Base 2.0.21
 _ZTI15BattleSceneFlowI10BattleEnum11BattleSceneE@Base 2.0.21
 _ZTI16AuxPokeDataProxy@Base 2.0.21
 _ZTI16BattleSceneProxy@Base 2.0.21
 _ZTI16MoveInfoAccessor@Base 2.0.21
 _ZTI18BattleDefaultTheme@Base 2.0.21
 _ZTI18FlowCommandManagerI10BattleEnumE@Base 2.0.21
 _ZTI18ProxyDataContainer@Base 2.0.21
 _ZTI18RegularBattleScene@Base 2.0.21
 _ZTI19PokemonInfoAccessor@Base 2.0.21
 _ZTI20BattleCommandInvokerI11BattleInputE@Base 2.0.21
 _ZTI20BattleCommandInvokerI11BattleSceneE@Base 2.0.21
 _ZTI20BattleCommandInvokerI14TestBattleDataE@Base 2.0.21
 _ZTI20BattleCommandInvokerI15BattleClientLogE@Base 2.0.21
 _ZTI20BattleCommandInvokerI18RegularBattleSceneE@Base 2.0.21
 _ZTI20BattleCommandManagerI11BattleInput11CommandFlowI10BattleEnumS0_E20BattleCommandInvokerIS0_EE@Base 2.0.21
 _ZTI20BattleCommandManagerI11BattleScene15BattleSceneFlowI10BattleEnumS0_E20BattleCommandInvokerIS0_EE@Base 2.0.21
 _ZTI20BattleCommandManagerI14TestBattleData11CommandFlowI10BattleEnumS0_E20BattleCommandInvokerIS0_EE@Base 2.0.21
 _ZTI20BattleCommandManagerI15BattleClientLog11CommandFlowI10BattleEnumS0_E20BattleCommandInvokerIS0_EE@Base 2.0.21
 _ZTI20BattleCommandManagerI18RegularBattleScene11CommandFlowI10BattleEnumS0_E20BattleCommandInvokerIS0_EE@Base 2.0.21
 _ZTI22AbstractCommandManagerI10BattleEnumE@Base 2.0.21
 _ZTI7CommandI11BattleInput10BattleEnumLS1_0EIRiS2_EE@Base 2.0.21
 _ZTI7CommandI11BattleInput10BattleEnumLS1_10EIRiEE@Base 2.0.21
 _ZTI7CommandI11BattleInput10BattleEnumLS1_11EIRiEE@Base 2.0.21
 _ZTI7CommandI11BattleInput10BattleEnumLS1_12EIRiS2_S2_RbEE@Base 2.0.21
 _ZTI7CommandI11BattleInput10BattleEnumLS1_13EIRiS2_RbS3_EE@Base 2.0.21
 _ZTI7CommandI11BattleInput10BattleEnumLS1_14EIRiS2_S2_EE@Base 2.0.21
 _ZTI7CommandI11BattleInput10BattleEnumLS1_15EIRiS2_EE@Base 2.0.21
 _ZTI7CommandI11BattleInput10BattleEnumLS1_16EIRiS2_EE@Base 2.0.21
 _ZTI7CommandI11BattleInput10BattleEnumLS1_17EIRiS2_EE@Base 2.0.21
 _ZTI7CommandI11BattleInput10BattleEnumLS1_18EIRiS2_EE@Base 2.0.21
 _ZTI7CommandI11BattleInput10BattleEnumLS1_19EIRiRbEE@Base 2.0.21
 _ZTI7CommandI11BattleInput10BattleEnumLS1_1EIRiS2_EE@Base 2.0.21
 _ZTI7CommandI11BattleInput10BattleEnumLS1_20EIRiRPSt10shared_ptrI7QStringEEE@Base 2.0.21
 _ZTI7CommandI11BattleInput10BattleEnumLS1_21EIRiRPSt10shared_ptrI7QStringEEE@Base 2.0.21
 _ZTI7CommandI11BattleInput10BattleEnumLS1_22EIRiEE@Base 2.0.21
 _ZTI7CommandI11BattleInput10BattleEnumLS1_23EIRiRPSt10shared_ptrI7QStringEEE@Base 2.0.21
 _ZTI7CommandI11BattleInput10BattleEnumLS1_24EIRiS2_S2_S2_S2_S2_RPSt10shared_ptrI7QStringEEE@Base 2.0.21
 _ZTI7CommandI11BattleInput10BattleEnumLS1_25EIRiEE@Base 2.0.21
 _ZTI7CommandI11BattleInput10BattleEnumLS1_26EIRiS2_S2_S2_S2_S2_EE@Base 2.0.21
 _ZTI7CommandI11BattleInput10BattleEnumLS1_27EIRiEE@Base 2.0.21
 _ZTI7CommandI11BattleInput10BattleEnumLS1_28EIRiEE@Base 2.0.21
 _ZTI7CommandI11BattleInput10BattleEnumLS1_29EIRiEE@Base 2.0.21
 _ZTI7CommandI11BattleInput10BattleEnumLS1_2EIRhEE@Base 2.0.21
 _ZTI7CommandI11BattleInput10BattleEnumLS1_30EIRiS2_RbEE@Base 2.0.21
 _ZTI7CommandI11BattleInput10BattleEnumLS1_31EIRiEE@Base 2.0.21
 _ZTI7CommandI11BattleInput10BattleEnumLS1_32EIRiEE@Base 2.0.21
 _ZTI7CommandI11BattleInput10BattleEnumLS1_33EIRiS2_EE@Base 2.0.21
 _ZTI7CommandI11BattleInput10BattleEnumLS1_34EIRiS2_S2_S2_S2_S2_EE@Base 2.0.21
 _ZTI7CommandI11BattleInput10BattleEnumLS1_35EIRiRbEE@Base 2.0.21
 _ZTI7CommandI11BattleInput10BattleEnumLS1_36EIRiS2_EE@Base 2.0.21
 _ZTI7CommandI11BattleInput10BattleEnumLS1_37EIEE@Base 2.0.21
 _ZTI7CommandI11BattleInput10BattleEnumLS1_38EIRiEE@Base 2.0.21
 _ZTI7CommandI11BattleInput10BattleEnumLS1_39EIRbEE@Base 2.0.21
 _ZTI7CommandI11BattleInput10BattleEnumLS1_3EIRhS2_RPSt10shared_ptrI17ShallowBattlePokeERbEE@Base 2.0.21
 _ZTI7CommandI11BattleInput10BattleEnumLS1_40EIRPSt10shared_ptrI7QStringEEE@Base 2.0.21
 _ZTI7CommandI11BattleInput10BattleEnumLS1_41EIRiR17BattleDynamicInfoEE@Base 2.0.21
 _ZTI7CommandI11BattleInput10BattleEnumLS1_42EIRiEE@Base 2.0.21
 _ZTI7CommandI11BattleInput10BattleEnumLS1_43EIRiEE@Base 2.0.21
 _ZTI7CommandI11BattleInput10BattleEnumLS1_44EIRiS2_EE@Base 2.0.21
 _ZTI7CommandI11BattleInput10BattleEnumLS1_45EIRiS2_S2_EE@Base 2.0.21
 _ZTI7CommandI11BattleInput10BattleEnumLS1_46EIRiS2_EE@Base 2.0.21
 _ZTI7CommandI11BattleInput10BattleEnumLS1_47EIRiS2_EE@Base 2.0.21
 _ZTI7CommandI11BattleInput10BattleEnumLS1_48EIRiS2_EE@Base 2.0.21
 _ZTI7CommandI11BattleInput10BattleEnumLS1_49EIRiS2_S2_RbEE@Base 2.0.21
 _ZTI7CommandI11BattleInput10BattleEnumLS1_4EIRiRbEE@Base 2.0.21
 _ZTI7CommandI11BattleInput10BattleEnumLS1_50EIRiS2_S2_EE@Base 2.0.21
 _ZTI7CommandI11BattleInput10BattleEnumLS1_51EIRiRPSt10shared_ptrI13BattleChoicesEEE@Base 2.0.21
 _ZTI7CommandI11BattleInput10BattleEnumLS1_52EIRiS2_S2_EE@Base 2.0.21
 _ZTI7CommandI11BattleInput10BattleEnumLS1_53EIRiS2_S2_RbEE@Base 2.0.21
 _ZTI7CommandI11BattleInput10BattleEnumLS1_54EIRiRPSt10shared_ptrI16ShallowShownTeamEEE@Base 2.0.21
 _ZTI7CommandI11BattleInput10BattleEnumLS1_55EIRiEE@Base 2.0.21
 _ZTI7CommandI11BattleInput10BattleEnumLS1_56EIRiEE@Base 2.0.21
 _ZTI7CommandI11BattleInput10BattleEnumLS1_57EIRiS2_S2_EE@Base 2.0.21
 _ZTI7CommandI11BattleInput10BattleEnumLS1_58EIRiRPSt10shared_ptrI11BattleStatsEEE@Base 2.0.21
 _ZTI7CommandI11BattleInput10BattleEnumLS1_59EIRPSt10shared_ptrI7QStringEEE@Base 2.0.21
 _ZTI7CommandI11BattleInput10BattleEnumLS1_5EIRiS2_RbEE@Base 2.0.21
 _ZTI7CommandI11BattleInput10BattleEnumLS1_60EIRiEE@Base 2.0.21
 _ZTI7CommandI11BattleInput10BattleEnumLS1_61EIRiEE@Base 2.0.21
 _ZTI7CommandI11BattleInput10BattleEnumLS1_62EIRiS2_S2_EE@Base 2.0.21
 _ZTI7CommandI11BattleInput10BattleEnumLS1_63EIRiS2_EE@Base 2.0.21
 _ZTI7CommandI11BattleInput10BattleEnumLS1_64EIRiRPSt10shared_ptrI15RearrangeChoiceEEE@Base 2.0.21
 _ZTI7CommandI11BattleInput10BattleEnumLS1_65EIRiEE@Base 2.0.21
 _ZTI7CommandI11BattleInput10BattleEnumLS1_66EIRiEE@Base 2.0.21
 _ZTI7CommandI11BattleInput10BattleEnumLS1_67EIRiEE@Base 2.0.21
 _ZTI7CommandI11BattleInput10BattleEnumLS1_68EIRiS2_EE@Base 2.0.21
 _ZTI7CommandI11BattleInput10BattleEnumLS1_69EIRiS2_S2_EE@Base 2.0.21
 _ZTI7CommandI11BattleInput10BattleEnumLS1_6EIRiEE@Base 2.0.21
 _ZTI7CommandI11BattleInput10BattleEnumLS1_7EIRiS2_EE@Base 2.0.21
 _ZTI7CommandI11BattleInput10BattleEnumLS1_8EIRiS2_EE@Base 2.0.21
 _ZTI7CommandI11BattleInput10BattleEnumLS1_9EIRiEE@Base 2.0.21
 _ZTI7CommandI11BattleScene10BattleEnumLS1_0EIRiS2_EE@Base 2.0.21
 _ZTI7CommandI11BattleScene10BattleEnumLS1_10EIRiEE@Base 2.0.21
 _ZTI7CommandI11BattleScene10BattleEnumLS1_11EIRiEE@Base 2.0.21
 _ZTI7CommandI11BattleScene10BattleEnumLS1_12EIRiS2_S2_RbEE@Base 2.0.21
 _ZTI7CommandI11BattleScene10BattleEnumLS1_13EIRiS2_RbS3_EE@Base 2.0.21
 _ZTI7CommandI11BattleScene10BattleEnumLS1_14EIRiS2_S2_EE@Base 2.0.21
 _ZTI7CommandI11BattleScene10BattleEnumLS1_15EIRiS2_EE@Base 2.0.21
 _ZTI7CommandI11BattleScene10BattleEnumLS1_16EIRiS2_EE@Base 2.0.21
 _ZTI7CommandI11BattleScene10BattleEnumLS1_17EIRiS2_EE@Base 2.0.21
 _ZTI7CommandI11BattleScene10BattleEnumLS1_18EIRiS2_EE@Base 2.0.21
 _ZTI7CommandI11BattleScene10BattleEnumLS1_19EIRiRbEE@Base 2.0.21
 _ZTI7CommandI11BattleScene10BattleEnumLS1_1EIRiS2_EE@Base 2.0.21
 _ZTI7CommandI11BattleScene10BattleEnumLS1_20EIRiRPSt10shared_ptrI7QStringEEE@Base 2.0.21
 _ZTI7CommandI11BattleScene10BattleEnumLS1_21EIRiRPSt10shared_ptrI7QStringEEE@Base 2.0.21
 _ZTI7CommandI11BattleScene10BattleEnumLS1_22EIRiEE@Base 2.0.21
 _ZTI7CommandI11BattleScene10BattleEnumLS1_23EIRiRPSt10shared_ptrI7QStringEEE@Base 2.0.21
 _ZTI7CommandI11BattleScene10BattleEnumLS1_24EIRiS2_S2_S2_S2_S2_RPSt10shared_ptrI7QStringEEE@Base 2.0.21
 _ZTI7CommandI11BattleScene10BattleEnumLS1_25EIRiEE@Base 2.0.21
 _ZTI7CommandI11BattleScene10BattleEnumLS1_26EIRiS2_S2_S2_S2_S2_EE@Base 2.0.21
 _ZTI7CommandI11BattleScene10BattleEnumLS1_27EIRiEE@Base 2.0.21
 _ZTI7CommandI11BattleScene10BattleEnumLS1_28EIRiEE@Base 2.0.21
 _ZTI7CommandI11BattleScene10BattleEnumLS1_29EIRiEE@Base 2.0.21
 _ZTI7CommandI11BattleScene10BattleEnumLS1_2EIRhEE@Base 2.0.21
 _ZTI7CommandI11BattleScene10BattleEnumLS1_30EIRiS2_RbEE@Base 2.0.21
 _ZTI7CommandI11BattleScene10BattleEnumLS1_31EIRiEE@Base 2.0.21
 _ZTI7CommandI11BattleScene10BattleEnumLS1_32EIRiEE@Base 2.0.21
 _ZTI7CommandI11BattleScene10BattleEnumLS1_33EIRiS2_EE@Base 2.0.21
 _ZTI7CommandI11BattleScene10BattleEnumLS1_34EIRiS2_S2_S2_S2_S2_EE@Base 2.0.21
 _ZTI7CommandI11BattleScene10BattleEnumLS1_35EIRiRbEE@Base 2.0.21
 _ZTI7CommandI11BattleScene10BattleEnumLS1_36EIRiS2_EE@Base 2.0.21
 _ZTI7CommandI11BattleScene10BattleEnumLS1_37EIEE@Base 2.0.21
 _ZTI7CommandI11BattleScene10BattleEnumLS1_38EIRiEE@Base 2.0.21
 _ZTI7CommandI11BattleScene10BattleEnumLS1_39EIRbEE@Base 2.0.21
 _ZTI7CommandI11BattleScene10BattleEnumLS1_3EIRhS2_RPSt10shared_ptrI17ShallowBattlePokeERbEE@Base 2.0.21
 _ZTI7CommandI11BattleScene10BattleEnumLS1_40EIRPSt10shared_ptrI7QStringEEE@Base 2.0.21
 _ZTI7CommandI11BattleScene10BattleEnumLS1_41EIRiR17BattleDynamicInfoEE@Base 2.0.21
 _ZTI7CommandI11BattleScene10BattleEnumLS1_42EIRiEE@Base 2.0.21
 _ZTI7CommandI11BattleScene10BattleEnumLS1_43EIRiEE@Base 2.0.21
 _ZTI7CommandI11BattleScene10BattleEnumLS1_44EIRiS2_EE@Base 2.0.21
 _ZTI7CommandI11BattleScene10BattleEnumLS1_45EIRiS2_S2_EE@Base 2.0.21
 _ZTI7CommandI11BattleScene10BattleEnumLS1_46EIRiS2_EE@Base 2.0.21
 _ZTI7CommandI11BattleScene10BattleEnumLS1_47EIRiS2_EE@Base 2.0.21
 _ZTI7CommandI11BattleScene10BattleEnumLS1_48EIRiS2_EE@Base 2.0.21
 _ZTI7CommandI11BattleScene10BattleEnumLS1_49EIRiS2_S2_RbEE@Base 2.0.21
 _ZTI7CommandI11BattleScene10BattleEnumLS1_4EIRiRbEE@Base 2.0.21
 _ZTI7CommandI11BattleScene10BattleEnumLS1_50EIRiS2_S2_EE@Base 2.0.21
 _ZTI7CommandI11BattleScene10BattleEnumLS1_51EIRiRPSt10shared_ptrI13BattleChoicesEEE@Base 2.0.21
 _ZTI7CommandI11BattleScene10BattleEnumLS1_52EIRiS2_S2_EE@Base 2.0.21
 _ZTI7CommandI11BattleScene10BattleEnumLS1_53EIRiS2_S2_RbEE@Base 2.0.21
 _ZTI7CommandI11BattleScene10BattleEnumLS1_54EIRiRPSt10shared_ptrI16ShallowShownTeamEEE@Base 2.0.21
 _ZTI7CommandI11BattleScene10BattleEnumLS1_55EIRiEE@Base 2.0.21
 _ZTI7CommandI11BattleScene10BattleEnumLS1_56EIRiEE@Base 2.0.21
 _ZTI7CommandI11BattleScene10BattleEnumLS1_57EIRiS2_S2_EE@Base 2.0.21
 _ZTI7CommandI11BattleScene10BattleEnumLS1_58EIRiRPSt10shared_ptrI11BattleStatsEEE@Base 2.0.21
 _ZTI7CommandI11BattleScene10BattleEnumLS1_59EIRPSt10shared_ptrI7QStringEEE@Base 2.0.21
 _ZTI7CommandI11BattleScene10BattleEnumLS1_5EIRiS2_RbEE@Base 2.0.21
 _ZTI7CommandI11BattleScene10BattleEnumLS1_60EIRiEE@Base 2.0.21
 _ZTI7CommandI11BattleScene10BattleEnumLS1_61EIRiEE@Base 2.0.21
 _ZTI7CommandI11BattleScene10BattleEnumLS1_62EIRiS2_S2_EE@Base 2.0.21
 _ZTI7CommandI11BattleScene10BattleEnumLS1_63EIRiS2_EE@Base 2.0.21
 _ZTI7CommandI11BattleScene10BattleEnumLS1_64EIRiRPSt10shared_ptrI15RearrangeChoiceEEE@Base 2.0.21
 _ZTI7CommandI11BattleScene10BattleEnumLS1_65EIRiEE@Base 2.0.21
 _ZTI7CommandI11BattleScene10BattleEnumLS1_66EIRiEE@Base 2.0.21
 _ZTI7CommandI11BattleScene10BattleEnumLS1_67EIRiEE@Base 2.0.21
 _ZTI7CommandI11BattleScene10BattleEnumLS1_68EIRiS2_EE@Base 2.0.21
 _ZTI7CommandI11BattleScene10BattleEnumLS1_69EIRiS2_S2_EE@Base 2.0.21
 _ZTI7CommandI11BattleScene10BattleEnumLS1_6EIRiEE@Base 2.0.21
 _ZTI7CommandI11BattleScene10BattleEnumLS1_7EIRiS2_EE@Base 2.0.21
 _ZTI7CommandI11BattleScene10BattleEnumLS1_8EIRiS2_EE@Base 2.0.21
 _ZTI7CommandI11BattleScene10BattleEnumLS1_9EIRiEE@Base 2.0.21
 _ZTI9MoveProxy@Base 2.0.21
 _ZTI9PokeProxy@Base 2.0.21
 _ZTI9TeamProxy@Base 2.0.21
 _ZTI9ZoneProxy@Base 2.0.21
 _ZTIN19QDeclarativePrivate19QDeclarativeElementI10FieldProxyEE@Base 2.0.21
 _ZTIN19QDeclarativePrivate19QDeclarativeElementI11BattleSceneEE@Base 2.0.21
 _ZTIN19QDeclarativePrivate19QDeclarativeElementI16AuxPokeDataProxyEE@Base 2.0.21
 _ZTIN19QDeclarativePrivate19QDeclarativeElementI16MoveInfoAccessorEE@Base 2.0.21
 _ZTIN19QDeclarativePrivate19QDeclarativeElementI18BattleDefaultThemeEE@Base 2.0.21
 _ZTIN19QDeclarativePrivate19QDeclarativeElementI18ProxyDataContainerEE@Base 2.0.21
 _ZTIN19QDeclarativePrivate19QDeclarativeElementI9MoveProxyEE@Base 2.0.21
 _ZTIN19QDeclarativePrivate19QDeclarativeElementI9PokeProxyEE@Base 2.0.21
 _ZTIN19QDeclarativePrivate19QDeclarativeElementI9TeamProxyEE@Base 2.0.21
 _ZTIN19QDeclarativePrivate19QDeclarativeElementI9ZoneProxyEE@Base 2.0.21
 _ZTISt11_Mutex_baseILN9__gnu_cxx12_Lock_policyE2EE@Base 2.0.21
 _ZTISt15_Sp_counted_ptrIP11BattleStatsLN9__gnu_cxx12_Lock_policyE2EE@Base 2.0.21
 _ZTISt15_Sp_counted_ptrIP13BattleChoicesLN9__gnu_cxx12_Lock_policyE2EE@Base 2.0.21
 _ZTISt15_Sp_counted_ptrIP15RearrangeChoiceLN9__gnu_cxx12_Lock_policyE2EE@Base 2.0.21
 _ZTISt15_Sp_counted_ptrIP16ShallowShownTeamLN9__gnu_cxx12_Lock_policyE2EE@Base 2.0.21
 _ZTISt15_Sp_counted_ptrIP17ShallowBattlePokeLN9__gnu_cxx12_Lock_policyE2EE@Base 2.0.21
 _ZTISt15_Sp_counted_ptrIP7QStringLN9__gnu_cxx12_Lock_policyE2EE@Base 2.0.21
 _ZTISt16_Sp_counted_baseILN9__gnu_cxx12_Lock_policyE2EE@Base 2.0.21
 _ZTS10DataStream@Base 2.0.21
 _ZTS10FieldProxy@Base 2.0.21
 _ZTS10PokeBattle@Base 2.0.21
 _ZTS11BattleInput@Base 2.0.21
 _ZTS11BattleScene@Base 2.0.21
 _ZTS11CommandFlowI10BattleEnum11BattleInputE@Base 2.0.21
 _ZTS11CommandFlowI10BattleEnum14TestBattleDataE@Base 2.0.21
 _ZTS11CommandFlowI10BattleEnum15BattleClientLogE@Base 2.0.21
 _ZTS11CommandFlowI10BattleEnum18RegularBattleSceneE@Base 2.0.21
 _ZTS12GraphicsZone@Base 2.0.21
 _ZTS14CommandManagerI10BattleEnum11BattleInput15BattleExtracterIS1_E11CommandFlowIS0_S1_E20BattleCommandInvokerIS1_EE@Base 2.0.21
 _ZTS14CommandManagerI10BattleEnum11BattleScene15BattleExtracterIS1_E15BattleSceneFlowIS0_S1_E20BattleCommandInvokerIS1_EE@Base 2.0.21
 _ZTS14CommandManagerI10BattleEnum14TestBattleData15BattleExtracterIS1_E11CommandFlowIS0_S1_E20BattleCommandInvokerIS1_EE@Base 2.0.21
 _ZTS14CommandManagerI10BattleEnum15BattleClientLog15BattleExtracterIS1_E11CommandFlowIS0_S1_E20BattleCommandInvokerIS1_EE@Base 2.0.21
 _ZTS14CommandManagerI10BattleEnum18RegularBattleScene15BattleExtracterIS1_E11CommandFlowIS0_S1_E20BattleCommandInvokerIS1_EE@Base 2.0.21
 _ZTS14TestBattleData@Base 2.0.21
 _ZTS15AbstractCommand@Base 2.0.21
 _ZTS15BattleClientLog@Base 2.0.21
 _ZTS15BattleExtracterI11BattleInputE@Base 2.0.21
 _ZTS15BattleExtracterI11BattleSceneE@Base 2.0.21
 _ZTS15BattleExtracterI14TestBattleDataE@Base 2.0.21
 _ZTS15BattleExtracterI15BattleClientLogE@Base 2.0.21
 _ZTS15BattleExtracterI18RegularBattleSceneE@Base 2.0.21
 _ZTS15BattleSceneFlowI10BattleEnum11BattleSceneE@Base 2.0.21
 _ZTS16AuxPokeDataProxy@Base 2.0.21
 _ZTS16BattleSceneProxy@Base 2.0.21
 _ZTS16MoveInfoAccessor@Base 2.0.21
 _ZTS18BattleDefaultTheme@Base 2.0.21
 _ZTS18FlowCommandManagerI10BattleEnumE@Base 2.0.21
 _ZTS18ProxyDataContainer@Base 2.0.21
 _ZTS18RegularBattleScene@Base 2.0.21
 _ZTS19PokemonInfoAccessor@Base 2.0.21
 _ZTS20BattleCommandInvokerI11BattleInputE@Base 2.0.21
 _ZTS20BattleCommandInvokerI11BattleSceneE@Base 2.0.21
 _ZTS20BattleCommandInvokerI14TestBattleDataE@Base 2.0.21
 _ZTS20BattleCommandInvokerI15BattleClientLogE@Base 2.0.21
 _ZTS20BattleCommandInvokerI18RegularBattleSceneE@Base 2.0.21
 _ZTS20BattleCommandManagerI11BattleInput11CommandFlowI10BattleEnumS0_E20BattleCommandInvokerIS0_EE@Base 2.0.21
 _ZTS20BattleCommandManagerI11BattleScene15BattleSceneFlowI10BattleEnumS0_E20BattleCommandInvokerIS0_EE@Base 2.0.21
 _ZTS20BattleCommandManagerI14TestBattleData11CommandFlowI10BattleEnumS0_E20BattleCommandInvokerIS0_EE@Base 2.0.21
 _ZTS20BattleCommandManagerI15BattleClientLog11CommandFlowI10BattleEnumS0_E20BattleCommandInvokerIS0_EE@Base 2.0.21
 _ZTS20BattleCommandManagerI18RegularBattleScene11CommandFlowI10BattleEnumS0_E20BattleCommandInvokerIS0_EE@Base 2.0.21
 _ZTS22AbstractCommandManagerI10BattleEnumE@Base 2.0.21
 _ZTS7CommandI11BattleInput10BattleEnumLS1_0EIRiS2_EE@Base 2.0.21
 _ZTS7CommandI11BattleInput10BattleEnumLS1_10EIRiEE@Base 2.0.21
 _ZTS7CommandI11BattleInput10BattleEnumLS1_11EIRiEE@Base 2.0.21
 _ZTS7CommandI11BattleInput10BattleEnumLS1_12EIRiS2_S2_RbEE@Base 2.0.21
 _ZTS7CommandI11BattleInput10BattleEnumLS1_13EIRiS2_RbS3_EE@Base 2.0.21
 _ZTS7CommandI11BattleInput10BattleEnumLS1_14EIRiS2_S2_EE@Base 2.0.21
 _ZTS7CommandI11BattleInput10BattleEnumLS1_15EIRiS2_EE@Base 2.0.21
 _ZTS7CommandI11BattleInput10BattleEnumLS1_16EIRiS2_EE@Base 2.0.21
 _ZTS7CommandI11BattleInput10BattleEnumLS1_17EIRiS2_EE@Base 2.0.21
 _ZTS7CommandI11BattleInput10BattleEnumLS1_18EIRiS2_EE@Base 2.0.21
 _ZTS7CommandI11BattleInput10BattleEnumLS1_19EIRiRbEE@Base 2.0.21
 _ZTS7CommandI11BattleInput10BattleEnumLS1_1EIRiS2_EE@Base 2.0.21
 _ZTS7CommandI11BattleInput10BattleEnumLS1_20EIRiRPSt10shared_ptrI7QStringEEE@Base 2.0.21
 _ZTS7CommandI11BattleInput10BattleEnumLS1_21EIRiRPSt10shared_ptrI7QStringEEE@Base 2.0.21
 _ZTS7CommandI11BattleInput10BattleEnumLS1_22EIRiEE@Base 2.0.21
 _ZTS7CommandI11BattleInput10BattleEnumLS1_23EIRiRPSt10shared_ptrI7QStringEEE@Base 2.0.21
 _ZTS7CommandI11BattleInput10BattleEnumLS1_24EIRiS2_S2_S2_S2_S2_RPSt10shared_ptrI7QStringEEE@Base 2.0.21
 _ZTS7CommandI11BattleInput10BattleEnumLS1_25EIRiEE@Base 2.0.21
 _ZTS7CommandI11BattleInput10BattleEnumLS1_26EIRiS2_S2_S2_S2_S2_EE@Base 2.0.21
 _ZTS7CommandI11BattleInput10BattleEnumLS1_27EIRiEE@Base 2.0.21
 _ZTS7CommandI11BattleInput10BattleEnumLS1_28EIRiEE@Base 2.0.21
 _ZTS7CommandI11BattleInput10BattleEnumLS1_29EIRiEE@Base 2.0.21
 _ZTS7CommandI11BattleInput10BattleEnumLS1_2EIRhEE@Base 2.0.21
 _ZTS7CommandI11BattleInput10BattleEnumLS1_30EIRiS2_RbEE@Base 2.0.21
 _ZTS7CommandI11BattleInput10BattleEnumLS1_31EIRiEE@Base 2.0.21
 _ZTS7CommandI11BattleInput10BattleEnumLS1_32EIRiEE@Base 2.0.21
 _ZTS7CommandI11BattleInput10BattleEnumLS1_33EIRiS2_EE@Base 2.0.21
 _ZTS7CommandI11BattleInput10BattleEnumLS1_34EIRiS2_S2_S2_S2_S2_EE@Base 2.0.21
 _ZTS7CommandI11BattleInput10BattleEnumLS1_35EIRiRbEE@Base 2.0.21
 _ZTS7CommandI11BattleInput10BattleEnumLS1_36EIRiS2_EE@Base 2.0.21
 _ZTS7CommandI11BattleInput10BattleEnumLS1_37EIEE@Base 2.0.21
 _ZTS7CommandI11BattleInput10BattleEnumLS1_38EIRiEE@Base 2.0.21
 _ZTS7CommandI11BattleInput10BattleEnumLS1_39EIRbEE@Base 2.0.21
 _ZTS7CommandI11BattleInput10BattleEnumLS1_3EIRhS2_RPSt10shared_ptrI17ShallowBattlePokeERbEE@Base 2.0.21
 _ZTS7CommandI11BattleInput10BattleEnumLS1_40EIRPSt10shared_ptrI7QStringEEE@Base 2.0.21
 _ZTS7CommandI11BattleInput10BattleEnumLS1_41EIRiR17BattleDynamicInfoEE@Base 2.0.21
 _ZTS7CommandI11BattleInput10BattleEnumLS1_42EIRiEE@Base 2.0.21
 _ZTS7CommandI11BattleInput10BattleEnumLS1_43EIRiEE@Base 2.0.21
 _ZTS7CommandI11BattleInput10BattleEnumLS1_44EIRiS2_EE@Base 2.0.21
 _ZTS7CommandI11BattleInput10BattleEnumLS1_45EIRiS2_S2_EE@Base 2.0.21
 _ZTS7CommandI11BattleInput10BattleEnumLS1_46EIRiS2_EE@Base 2.0.21
 _ZTS7CommandI11BattleInput10BattleEnumLS1_47EIRiS2_EE@Base 2.0.21
 _ZTS7CommandI11BattleInput10BattleEnumLS1_48EIRiS2_EE@Base 2.0.21
 _ZTS7CommandI11BattleInput10BattleEnumLS1_49EIRiS2_S2_RbEE@Base 2.0.21
 _ZTS7CommandI11BattleInput10BattleEnumLS1_4EIRiRbEE@Base 2.0.21
 _ZTS7CommandI11BattleInput10BattleEnumLS1_50EIRiS2_S2_EE@Base 2.0.21
 _ZTS7CommandI11BattleInput10BattleEnumLS1_51EIRiRPSt10shared_ptrI13BattleChoicesEEE@Base 2.0.21
 _ZTS7CommandI11BattleInput10BattleEnumLS1_52EIRiS2_S2_EE@Base 2.0.21
 _ZTS7CommandI11BattleInput10BattleEnumLS1_53EIRiS2_S2_RbEE@Base 2.0.21
 _ZTS7CommandI11BattleInput10BattleEnumLS1_54EIRiRPSt10shared_ptrI16ShallowShownTeamEEE@Base 2.0.21
 _ZTS7CommandI11BattleInput10BattleEnumLS1_55EIRiEE@Base 2.0.21
 _ZTS7CommandI11BattleInput10BattleEnumLS1_56EIRiEE@Base 2.0.21
 _ZTS7CommandI11BattleInput10BattleEnumLS1_57EIRiS2_S2_EE@Base 2.0.21
 _ZTS7CommandI11BattleInput10BattleEnumLS1_58EIRiRPSt10shared_ptrI11BattleStatsEEE@Base 2.0.21
 _ZTS7CommandI11BattleInput10BattleEnumLS1_59EIRPSt10shared_ptrI7QStringEEE@Base 2.0.21
 _ZTS7CommandI11BattleInput10BattleEnumLS1_5EIRiS2_RbEE@Base 2.0.21
 _ZTS7CommandI11BattleInput10BattleEnumLS1_60EIRiEE@Base 2.0.21
 _ZTS7CommandI11BattleInput10BattleEnumLS1_61EIRiEE@Base 2.0.21
 _ZTS7CommandI11BattleInput10BattleEnumLS1_62EIRiS2_S2_EE@Base 2.0.21
 _ZTS7CommandI11BattleInput10BattleEnumLS1_63EIRiS2_EE@Base 2.0.21
 _ZTS7CommandI11BattleInput10BattleEnumLS1_64EIRiRPSt10shared_ptrI15RearrangeChoiceEEE@Base 2.0.21
 _ZTS7CommandI11BattleInput10BattleEnumLS1_65EIRiEE@Base 2.0.21
 _ZTS7CommandI11BattleInput10BattleEnumLS1_66EIRiEE@Base 2.0.21
 _ZTS7CommandI11BattleInput10BattleEnumLS1_67EIRiEE@Base 2.0.21
 _ZTS7CommandI11BattleInput10BattleEnumLS1_68EIRiS2_EE@Base 2.0.21
 _ZTS7CommandI11BattleInput10BattleEnumLS1_69EIRiS2_S2_EE@Base 2.0.21
 _ZTS7CommandI11BattleInput10BattleEnumLS1_6EIRiEE@Base 2.0.21
 _ZTS7CommandI11BattleInput10BattleEnumLS1_7EIRiS2_EE@Base 2.0.21
 _ZTS7CommandI11BattleInput10BattleEnumLS1_8EIRiS2_EE@Base 2.0.21
 _ZTS7CommandI11BattleInput10BattleEnumLS1_9EIRiEE@Base 2.0.21
 _ZTS7CommandI11BattleScene10BattleEnumLS1_0EIRiS2_EE@Base 2.0.21
 _ZTS7CommandI11BattleScene10BattleEnumLS1_10EIRiEE@Base 2.0.21
 _ZTS7CommandI11BattleScene10BattleEnumLS1_11EIRiEE@Base 2.0.21
 _ZTS7CommandI11BattleScene10BattleEnumLS1_12EIRiS2_S2_RbEE@Base 2.0.21
 _ZTS7CommandI11BattleScene10BattleEnumLS1_13EIRiS2_RbS3_EE@Base 2.0.21
 _ZTS7CommandI11BattleScene10BattleEnumLS1_14EIRiS2_S2_EE@Base 2.0.21
 _ZTS7CommandI11BattleScene10BattleEnumLS1_15EIRiS2_EE@Base 2.0.21
 _ZTS7CommandI11BattleScene10BattleEnumLS1_16EIRiS2_EE@Base 2.0.21
 _ZTS7CommandI11BattleScene10BattleEnumLS1_17EIRiS2_EE@Base 2.0.21
 _ZTS7CommandI11BattleScene10BattleEnumLS1_18EIRiS2_EE@Base 2.0.21
 _ZTS7CommandI11BattleScene10BattleEnumLS1_19EIRiRbEE@Base 2.0.21
 _ZTS7CommandI11BattleScene10BattleEnumLS1_1EIRiS2_EE@Base 2.0.21
 _ZTS7CommandI11BattleScene10BattleEnumLS1_20EIRiRPSt10shared_ptrI7QStringEEE@Base 2.0.21
 _ZTS7CommandI11BattleScene10BattleEnumLS1_21EIRiRPSt10shared_ptrI7QStringEEE@Base 2.0.21
 _ZTS7CommandI11BattleScene10BattleEnumLS1_22EIRiEE@Base 2.0.21
 _ZTS7CommandI11BattleScene10BattleEnumLS1_23EIRiRPSt10shared_ptrI7QStringEEE@Base 2.0.21
 _ZTS7CommandI11BattleScene10BattleEnumLS1_24EIRiS2_S2_S2_S2_S2_RPSt10shared_ptrI7QStringEEE@Base 2.0.21
 _ZTS7CommandI11BattleScene10BattleEnumLS1_25EIRiEE@Base 2.0.21
 _ZTS7CommandI11BattleScene10BattleEnumLS1_26EIRiS2_S2_S2_S2_S2_EE@Base 2.0.21
 _ZTS7CommandI11BattleScene10BattleEnumLS1_27EIRiEE@Base 2.0.21
 _ZTS7CommandI11BattleScene10BattleEnumLS1_28EIRiEE@Base 2.0.21
 _ZTS7CommandI11BattleScene10BattleEnumLS1_29EIRiEE@Base 2.0.21
 _ZTS7CommandI11BattleScene10BattleEnumLS1_2EIRhEE@Base 2.0.21
 _ZTS7CommandI11BattleScene10BattleEnumLS1_30EIRiS2_RbEE@Base 2.0.21
 _ZTS7CommandI11BattleScene10BattleEnumLS1_31EIRiEE@Base 2.0.21
 _ZTS7CommandI11BattleScene10BattleEnumLS1_32EIRiEE@Base 2.0.21
 _ZTS7CommandI11BattleScene10BattleEnumLS1_33EIRiS2_EE@Base 2.0.21
 _ZTS7CommandI11BattleScene10BattleEnumLS1_34EIRiS2_S2_S2_S2_S2_EE@Base 2.0.21
 _ZTS7CommandI11BattleScene10BattleEnumLS1_35EIRiRbEE@Base 2.0.21
 _ZTS7CommandI11BattleScene10BattleEnumLS1_36EIRiS2_EE@Base 2.0.21
 _ZTS7CommandI11BattleScene10BattleEnumLS1_37EIEE@Base 2.0.21
 _ZTS7CommandI11BattleScene10BattleEnumLS1_38EIRiEE@Base 2.0.21
 _ZTS7CommandI11BattleScene10BattleEnumLS1_39EIRbEE@Base 2.0.21
 _ZTS7CommandI11BattleScene10BattleEnumLS1_3EIRhS2_RPSt10shared_ptrI17ShallowBattlePokeERbEE@Base 2.0.21
 _ZTS7CommandI11BattleScene10BattleEnumLS1_40EIRPSt10shared_ptrI7QStringEEE@Base 2.0.21
 _ZTS7CommandI11BattleScene10BattleEnumLS1_41EIRiR17BattleDynamicInfoEE@Base 2.0.21
 _ZTS7CommandI11BattleScene10BattleEnumLS1_42EIRiEE@Base 2.0.21
 _ZTS7CommandI11BattleScene10BattleEnumLS1_43EIRiEE@Base 2.0.21
 _ZTS7CommandI11BattleScene10BattleEnumLS1_44EIRiS2_EE@Base 2.0.21
 _ZTS7CommandI11BattleScene10BattleEnumLS1_45EIRiS2_S2_EE@Base 2.0.21
 _ZTS7CommandI11BattleScene10BattleEnumLS1_46EIRiS2_EE@Base 2.0.21
 _ZTS7CommandI11BattleScene10BattleEnumLS1_47EIRiS2_EE@Base 2.0.21
 _ZTS7CommandI11BattleScene10BattleEnumLS1_48EIRiS2_EE@Base 2.0.21
 _ZTS7CommandI11BattleScene10BattleEnumLS1_49EIRiS2_S2_RbEE@Base 2.0.21
 _ZTS7CommandI11BattleScene10BattleEnumLS1_4EIRiRbEE@Base 2.0.21
 _ZTS7CommandI11BattleScene10BattleEnumLS1_50EIRiS2_S2_EE@Base 2.0.21
 _ZTS7CommandI11BattleScene10BattleEnumLS1_51EIRiRPSt10shared_ptrI13BattleChoicesEEE@Base 2.0.21
 _ZTS7CommandI11BattleScene10BattleEnumLS1_52EIRiS2_S2_EE@Base 2.0.21
 _ZTS7CommandI11BattleScene10BattleEnumLS1_53EIRiS2_S2_RbEE@Base 2.0.21
 _ZTS7CommandI11BattleScene10BattleEnumLS1_54EIRiRPSt10shared_ptrI16ShallowShownTeamEEE@Base 2.0.21
 _ZTS7CommandI11BattleScene10BattleEnumLS1_55EIRiEE@Base 2.0.21
 _ZTS7CommandI11BattleScene10BattleEnumLS1_56EIRiEE@Base 2.0.21
 _ZTS7CommandI11BattleScene10BattleEnumLS1_57EIRiS2_S2_EE@Base 2.0.21
 _ZTS7CommandI11BattleScene10BattleEnumLS1_58EIRiRPSt10shared_ptrI11BattleStatsEEE@Base 2.0.21
 _ZTS7CommandI11BattleScene10BattleEnumLS1_59EIRPSt10shared_ptrI7QStringEEE@Base 2.0.21
 _ZTS7CommandI11BattleScene10BattleEnumLS1_5EIRiS2_RbEE@Base 2.0.21
 _ZTS7CommandI11BattleScene10BattleEnumLS1_60EIRiEE@Base 2.0.21
 _ZTS7CommandI11BattleScene10BattleEnumLS1_61EIRiEE@Base 2.0.21
 _ZTS7CommandI11BattleScene10BattleEnumLS1_62EIRiS2_S2_EE@Base 2.0.21
 _ZTS7CommandI11BattleScene10BattleEnumLS1_63EIRiS2_EE@Base 2.0.21
 _ZTS7CommandI11BattleScene10BattleEnumLS1_64EIRiRPSt10shared_ptrI15RearrangeChoiceEEE@Base 2.0.21
 _ZTS7CommandI11BattleScene10BattleEnumLS1_65EIRiEE@Base 2.0.21
 _ZTS7CommandI11BattleScene10BattleEnumLS1_66EIRiEE@Base 2.0.21
 _ZTS7CommandI11BattleScene10BattleEnumLS1_67EIRiEE@Base 2.0.21
 _ZTS7CommandI11BattleScene10BattleEnumLS1_68EIRiS2_EE@Base 2.0.21
 _ZTS7CommandI11BattleScene10BattleEnumLS1_69EIRiS2_S2_EE@Base 2.0.21
 _ZTS7CommandI11BattleScene10BattleEnumLS1_6EIRiEE@Base 2.0.21
 _ZTS7CommandI11BattleScene10BattleEnumLS1_7EIRiS2_EE@Base 2.0.21
 _ZTS7CommandI11BattleScene10BattleEnumLS1_8EIRiS2_EE@Base 2.0.21
 _ZTS7CommandI11BattleScene10BattleEnumLS1_9EIRiEE@Base 2.0.21
 _ZTS9MoveProxy@Base 2.0.21
 _ZTS9PokeProxy@Base 2.0.21
 _ZTS9TeamProxy@Base 2.0.21
 _ZTS9ZoneProxy@Base 2.0.21
 _ZTSN19QDeclarativePrivate19QDeclarativeElementI10FieldProxyEE@Base 2.0.21
 _ZTSN19QDeclarativePrivate19QDeclarativeElementI11BattleSceneEE@Base 2.0.21
 _ZTSN19QDeclarativePrivate19QDeclarativeElementI16AuxPokeDataProxyEE@Base 2.0.21
 _ZTSN19QDeclarativePrivate19QDeclarativeElementI16MoveInfoAccessorEE@Base 2.0.21
 _ZTSN19QDeclarativePrivate19QDeclarativeElementI18BattleDefaultThemeEE@Base 2.0.21
 _ZTSN19QDeclarativePrivate19QDeclarativeElementI18ProxyDataContainerEE@Base 2.0.21
 _ZTSN19QDeclarativePrivate19QDeclarativeElementI9MoveProxyEE@Base 2.0.21
 _ZTSN19QDeclarativePrivate19QDeclarativeElementI9PokeProxyEE@Base 2.0.21
 _ZTSN19QDeclarativePrivate19QDeclarativeElementI9TeamProxyEE@Base 2.0.21
 _ZTSN19QDeclarativePrivate19QDeclarativeElementI9ZoneProxyEE@Base 2.0.21
 _ZTSSt11_Mutex_baseILN9__gnu_cxx12_Lock_policyE2EE@Base 2.0.21
 _ZTSSt15_Sp_counted_ptrIP11BattleStatsLN9__gnu_cxx12_Lock_policyE2EE@Base 2.0.21
 _ZTSSt15_Sp_counted_ptrIP13BattleChoicesLN9__gnu_cxx12_Lock_policyE2EE@Base 2.0.21
 _ZTSSt15_Sp_counted_ptrIP15RearrangeChoiceLN9__gnu_cxx12_Lock_policyE2EE@Base 2.0.21
 _ZTSSt15_Sp_counted_ptrIP16ShallowShownTeamLN9__gnu_cxx12_Lock_policyE2EE@Base 2.0.21
 _ZTSSt15_Sp_counted_ptrIP17ShallowBattlePokeLN9__gnu_cxx12_Lock_policyE2EE@Base 2.0.21
 _ZTSSt15_Sp_counted_ptrIP7QStringLN9__gnu_cxx12_Lock_policyE2EE@Base 2.0.21
 _ZTSSt16_Sp_counted_baseILN9__gnu_cxx12_Lock_policyE2EE@Base 2.0.21
 _ZTV10DataStream@Base 2.0.21
 _ZTV10FieldProxy@Base 2.0.21
 _ZTV10PokeBattle@Base 2.0.21
 _ZTV11BattleInput@Base 2.0.21
 _ZTV11BattleScene@Base 2.0.21
 _ZTV12GraphicsZone@Base 2.0.21
 _ZTV14CommandManagerI10BattleEnum11BattleInput15BattleExtracterIS1_E11CommandFlowIS0_S1_E20BattleCommandInvokerIS1_EE@Base 2.0.21
 _ZTV14CommandManagerI10BattleEnum11BattleScene15BattleExtracterIS1_E15BattleSceneFlowIS0_S1_E20BattleCommandInvokerIS1_EE@Base 2.0.21
 _ZTV14CommandManagerI10BattleEnum14TestBattleData15BattleExtracterIS1_E11CommandFlowIS0_S1_E20BattleCommandInvokerIS1_EE@Base 2.0.21
 _ZTV14CommandManagerI10BattleEnum15BattleClientLog15BattleExtracterIS1_E11CommandFlowIS0_S1_E20BattleCommandInvokerIS1_EE@Base 2.0.21
 _ZTV14CommandManagerI10BattleEnum18RegularBattleScene15BattleExtracterIS1_E11CommandFlowIS0_S1_E20BattleCommandInvokerIS1_EE@Base 2.0.21
 _ZTV14TestBattleData@Base 2.0.21
 _ZTV15AbstractCommand@Base 2.0.21
 _ZTV15BattleClientLog@Base 2.0.21
 _ZTV16AuxPokeDataProxy@Base 2.0.21
 _ZTV16BattleSceneProxy@Base 2.0.21
 _ZTV16MoveInfoAccessor@Base 2.0.21
 _ZTV18BattleDefaultTheme@Base 2.0.21
 _ZTV18FlowCommandManagerI10BattleEnumE@Base 2.0.21
 _ZTV18ProxyDataContainer@Base 2.0.21
 _ZTV18RegularBattleScene@Base 2.0.21
 _ZTV19PokemonInfoAccessor@Base 2.0.21
 _ZTV20BattleCommandManagerI11BattleInput11CommandFlowI10BattleEnumS0_E20BattleCommandInvokerIS0_EE@Base 2.0.21
 _ZTV20BattleCommandManagerI11BattleScene15BattleSceneFlowI10BattleEnumS0_E20BattleCommandInvokerIS0_EE@Base 2.0.21
 _ZTV20BattleCommandManagerI14TestBattleData11CommandFlowI10BattleEnumS0_E20BattleCommandInvokerIS0_EE@Base 2.0.21
 _ZTV20BattleCommandManagerI15BattleClientLog11CommandFlowI10BattleEnumS0_E20BattleCommandInvokerIS0_EE@Base 2.0.21
 _ZTV20BattleCommandManagerI18RegularBattleScene11CommandFlowI10BattleEnumS0_E20BattleCommandInvokerIS0_EE@Base 2.0.21
 _ZTV22AbstractCommandManagerI10BattleEnumE@Base 2.0.21
 _ZTV7CommandI11BattleInput10BattleEnumLS1_0EIRiS2_EE@Base 2.0.21
 _ZTV7CommandI11BattleInput10BattleEnumLS1_10EIRiEE@Base 2.0.21
 _ZTV7CommandI11BattleInput10BattleEnumLS1_11EIRiEE@Base 2.0.21
 _ZTV7CommandI11BattleInput10BattleEnumLS1_12EIRiS2_S2_RbEE@Base 2.0.21
 _ZTV7CommandI11BattleInput10BattleEnumLS1_13EIRiS2_RbS3_EE@Base 2.0.21
 _ZTV7CommandI11BattleInput10BattleEnumLS1_14EIRiS2_S2_EE@Base 2.0.21
 _ZTV7CommandI11BattleInput10BattleEnumLS1_15EIRiS2_EE@Base 2.0.21
 _ZTV7CommandI11BattleInput10BattleEnumLS1_16EIRiS2_EE@Base 2.0.21
 _ZTV7CommandI11BattleInput10BattleEnumLS1_17EIRiS2_EE@Base 2.0.21
 _ZTV7CommandI11BattleInput10BattleEnumLS1_18EIRiS2_EE@Base 2.0.21
 _ZTV7CommandI11BattleInput10BattleEnumLS1_19EIRiRbEE@Base 2.0.21
 _ZTV7CommandI11BattleInput10BattleEnumLS1_1EIRiS2_EE@Base 2.0.21
 _ZTV7CommandI11BattleInput10BattleEnumLS1_20EIRiRPSt10shared_ptrI7QStringEEE@Base 2.0.21
 _ZTV7CommandI11BattleInput10BattleEnumLS1_21EIRiRPSt10shared_ptrI7QStringEEE@Base 2.0.21
 _ZTV7CommandI11BattleInput10BattleEnumLS1_22EIRiEE@Base 2.0.21
 _ZTV7CommandI11BattleInput10BattleEnumLS1_23EIRiRPSt10shared_ptrI7QStringEEE@Base 2.0.21
 _ZTV7CommandI11BattleInput10BattleEnumLS1_24EIRiS2_S2_S2_S2_S2_RPSt10shared_ptrI7QStringEEE@Base 2.0.21
 _ZTV7CommandI11BattleInput10BattleEnumLS1_25EIRiEE@Base 2.0.21
 _ZTV7CommandI11BattleInput10BattleEnumLS1_26EIRiS2_S2_S2_S2_S2_EE@Base 2.0.21
 _ZTV7CommandI11BattleInput10BattleEnumLS1_27EIRiEE@Base 2.0.21
 _ZTV7CommandI11BattleInput10BattleEnumLS1_28EIRiEE@Base 2.0.21
 _ZTV7CommandI11BattleInput10BattleEnumLS1_29EIRiEE@Base 2.0.21
 _ZTV7CommandI11BattleInput10BattleEnumLS1_2EIRhEE@Base 2.0.21
 _ZTV7CommandI11BattleInput10BattleEnumLS1_30EIRiS2_RbEE@Base 2.0.21
 _ZTV7CommandI11BattleInput10BattleEnumLS1_31EIRiEE@Base 2.0.21
 _ZTV7CommandI11BattleInput10BattleEnumLS1_32EIRiEE@Base 2.0.21
 _ZTV7CommandI11BattleInput10BattleEnumLS1_33EIRiS2_EE@Base 2.0.21
 _ZTV7CommandI11BattleInput10BattleEnumLS1_34EIRiS2_S2_S2_S2_S2_EE@Base 2.0.21
 _ZTV7CommandI11BattleInput10BattleEnumLS1_35EIRiRbEE@Base 2.0.21
 _ZTV7CommandI11BattleInput10BattleEnumLS1_36EIRiS2_EE@Base 2.0.21
 _ZTV7CommandI11BattleInput10BattleEnumLS1_37EIEE@Base 2.0.21
 _ZTV7CommandI11BattleInput10BattleEnumLS1_38EIRiEE@Base 2.0.21
 _ZTV7CommandI11BattleInput10BattleEnumLS1_39EIRbEE@Base 2.0.21
 _ZTV7CommandI11BattleInput10BattleEnumLS1_3EIRhS2_RPSt10shared_ptrI17ShallowBattlePokeERbEE@Base 2.0.21
 _ZTV7CommandI11BattleInput10BattleEnumLS1_40EIRPSt10shared_ptrI7QStringEEE@Base 2.0.21
 _ZTV7CommandI11BattleInput10BattleEnumLS1_41EIRiR17BattleDynamicInfoEE@Base 2.0.21
 _ZTV7CommandI11BattleInput10BattleEnumLS1_42EIRiEE@Base 2.0.21
 _ZTV7CommandI11BattleInput10BattleEnumLS1_43EIRiEE@Base 2.0.21
 _ZTV7CommandI11BattleInput10BattleEnumLS1_44EIRiS2_EE@Base 2.0.21
 _ZTV7CommandI11BattleInput10BattleEnumLS1_45EIRiS2_S2_EE@Base 2.0.21
 _ZTV7CommandI11BattleInput10BattleEnumLS1_46EIRiS2_EE@Base 2.0.21
 _ZTV7CommandI11BattleInput10BattleEnumLS1_47EIRiS2_EE@Base 2.0.21
 _ZTV7CommandI11BattleInput10BattleEnumLS1_48EIRiS2_EE@Base 2.0.21
 _ZTV7CommandI11BattleInput10BattleEnumLS1_49EIRiS2_S2_RbEE@Base 2.0.21
 _ZTV7CommandI11BattleInput10BattleEnumLS1_4EIRiRbEE@Base 2.0.21
 _ZTV7CommandI11BattleInput10BattleEnumLS1_50EIRiS2_S2_EE@Base 2.0.21
 _ZTV7CommandI11BattleInput10BattleEnumLS1_51EIRiRPSt10shared_ptrI13BattleChoicesEEE@Base 2.0.21
 _ZTV7CommandI11BattleInput10BattleEnumLS1_52EIRiS2_S2_EE@Base 2.0.21
 _ZTV7CommandI11BattleInput10BattleEnumLS1_53EIRiS2_S2_RbEE@Base 2.0.21
 _ZTV7CommandI11BattleInput10BattleEnumLS1_54EIRiRPSt10shared_ptrI16ShallowShownTeamEEE@Base 2.0.21
 _ZTV7CommandI11BattleInput10BattleEnumLS1_55EIRiEE@Base 2.0.21
 _ZTV7CommandI11BattleInput10BattleEnumLS1_56EIRiEE@Base 2.0.21
 _ZTV7CommandI11BattleInput10BattleEnumLS1_57EIRiS2_S2_EE@Base 2.0.21
 _ZTV7CommandI11BattleInput10BattleEnumLS1_58EIRiRPSt10shared_ptrI11BattleStatsEEE@Base 2.0.21
 _ZTV7CommandI11BattleInput10BattleEnumLS1_59EIRPSt10shared_ptrI7QStringEEE@Base 2.0.21
 _ZTV7CommandI11BattleInput10BattleEnumLS1_5EIRiS2_RbEE@Base 2.0.21
 _ZTV7CommandI11BattleInput10BattleEnumLS1_60EIRiEE@Base 2.0.21
 _ZTV7CommandI11BattleInput10BattleEnumLS1_61EIRiEE@Base 2.0.21
 _ZTV7CommandI11BattleInput10BattleEnumLS1_62EIRiS2_S2_EE@Base 2.0.21
 _ZTV7CommandI11BattleInput10BattleEnumLS1_63EIRiS2_EE@Base 2.0.21
 _ZTV7CommandI11BattleInput10BattleEnumLS1_64EIRiRPSt10shared_ptrI15RearrangeChoiceEEE@Base 2.0.21
 _ZTV7CommandI11BattleInput10BattleEnumLS1_65EIRiEE@Base 2.0.21
 _ZTV7CommandI11BattleInput10BattleEnumLS1_66EIRiEE@Base 2.0.21
 _ZTV7CommandI11BattleInput10BattleEnumLS1_67EIRiEE@Base 2.0.21
 _ZTV7CommandI11BattleInput10BattleEnumLS1_68EIRiS2_EE@Base 2.0.21
 _ZTV7CommandI11BattleInput10BattleEnumLS1_69EIRiS2_S2_EE@Base 2.0.21
 _ZTV7CommandI11BattleInput10BattleEnumLS1_6EIRiEE@Base 2.0.21
 _ZTV7CommandI11BattleInput10BattleEnumLS1_7EIRiS2_EE@Base 2.0.21
 _ZTV7CommandI11BattleInput10BattleEnumLS1_8EIRiS2_EE@Base 2.0.21
 _ZTV7CommandI11BattleInput10BattleEnumLS1_9EIRiEE@Base 2.0.21
 _ZTV7CommandI11BattleScene10BattleEnumLS1_0EIRiS2_EE@Base 2.0.21
 _ZTV7CommandI11BattleScene10BattleEnumLS1_10EIRiEE@Base 2.0.21
 _ZTV7CommandI11BattleScene10BattleEnumLS1_11EIRiEE@Base 2.0.21
 _ZTV7CommandI11BattleScene10BattleEnumLS1_12EIRiS2_S2_RbEE@Base 2.0.21
 _ZTV7CommandI11BattleScene10BattleEnumLS1_13EIRiS2_RbS3_EE@Base 2.0.21
 _ZTV7CommandI11BattleScene10BattleEnumLS1_14EIRiS2_S2_EE@Base 2.0.21
 _ZTV7CommandI11BattleScene10BattleEnumLS1_15EIRiS2_EE@Base 2.0.21
 _ZTV7CommandI11BattleScene10BattleEnumLS1_16EIRiS2_EE@Base 2.0.21
 _ZTV7CommandI11BattleScene10BattleEnumLS1_17EIRiS2_EE@Base 2.0.21
 _ZTV7CommandI11BattleScene10BattleEnumLS1_18EIRiS2_EE@Base 2.0.21
 _ZTV7CommandI11BattleScene10BattleEnumLS1_19EIRiRbEE@Base 2.0.21
 _ZTV7CommandI11BattleScene10BattleEnumLS1_1EIRiS2_EE@Base 2.0.21
 _ZTV7CommandI11BattleScene10BattleEnumLS1_20EIRiRPSt10shared_ptrI7QStringEEE@Base 2.0.21
 _ZTV7CommandI11BattleScene10BattleEnumLS1_21EIRiRPSt10shared_ptrI7QStringEEE@Base 2.0.21
 _ZTV7CommandI11BattleScene10BattleEnumLS1_22EIRiEE@Base 2.0.21
 _ZTV7CommandI11BattleScene10BattleEnumLS1_23EIRiRPSt10shared_ptrI7QStringEEE@Base 2.0.21
 _ZTV7CommandI11BattleScene10BattleEnumLS1_24EIRiS2_S2_S2_S2_S2_RPSt10shared_ptrI7QStringEEE@Base 2.0.21
 _ZTV7CommandI11BattleScene10BattleEnumLS1_25EIRiEE@Base 2.0.21
 _ZTV7CommandI11BattleScene10BattleEnumLS1_26EIRiS2_S2_S2_S2_S2_EE@Base 2.0.21
 _ZTV7CommandI11BattleScene10BattleEnumLS1_27EIRiEE@Base 2.0.21
 _ZTV7CommandI11BattleScene10BattleEnumLS1_28EIRiEE@Base 2.0.21
 _ZTV7CommandI11BattleScene10BattleEnumLS1_29EIRiEE@Base 2.0.21
 _ZTV7CommandI11BattleScene10BattleEnumLS1_2EIRhEE@Base 2.0.21
 _ZTV7CommandI11BattleScene10BattleEnumLS1_30EIRiS2_RbEE@Base 2.0.21
 _ZTV7CommandI11BattleScene10BattleEnumLS1_31EIRiEE@Base 2.0.21
 _ZTV7CommandI11BattleScene10BattleEnumLS1_32EIRiEE@Base 2.0.21
 _ZTV7CommandI11BattleScene10BattleEnumLS1_33EIRiS2_EE@Base 2.0.21
 _ZTV7CommandI11BattleScene10BattleEnumLS1_34EIRiS2_S2_S2_S2_S2_EE@Base 2.0.21
 _ZTV7CommandI11BattleScene10BattleEnumLS1_35EIRiRbEE@Base 2.0.21
 _ZTV7CommandI11BattleScene10BattleEnumLS1_36EIRiS2_EE@Base 2.0.21
 _ZTV7CommandI11BattleScene10BattleEnumLS1_37EIEE@Base 2.0.21
 _ZTV7CommandI11BattleScene10BattleEnumLS1_38EIRiEE@Base 2.0.21
 _ZTV7CommandI11BattleScene10BattleEnumLS1_39EIRbEE@Base 2.0.21
 _ZTV7CommandI11BattleScene10BattleEnumLS1_3EIRhS2_RPSt10shared_ptrI17ShallowBattlePokeERbEE@Base 2.0.21
 _ZTV7CommandI11BattleScene10BattleEnumLS1_40EIRPSt10shared_ptrI7QStringEEE@Base 2.0.21
 _ZTV7CommandI11BattleScene10BattleEnumLS1_41EIRiR17BattleDynamicInfoEE@Base 2.0.21
 _ZTV7CommandI11BattleScene10BattleEnumLS1_42EIRiEE@Base 2.0.21
 _ZTV7CommandI11BattleScene10BattleEnumLS1_43EIRiEE@Base 2.0.21
 _ZTV7CommandI11BattleScene10BattleEnumLS1_44EIRiS2_EE@Base 2.0.21
 _ZTV7CommandI11BattleScene10BattleEnumLS1_45EIRiS2_S2_EE@Base 2.0.21
 _ZTV7CommandI11BattleScene10BattleEnumLS1_46EIRiS2_EE@Base 2.0.21
 _ZTV7CommandI11BattleScene10BattleEnumLS1_47EIRiS2_EE@Base 2.0.21
 _ZTV7CommandI11BattleScene10BattleEnumLS1_48EIRiS2_EE@Base 2.0.21
 _ZTV7CommandI11BattleScene10BattleEnumLS1_49EIRiS2_S2_RbEE@Base 2.0.21
 _ZTV7CommandI11BattleScene10BattleEnumLS1_4EIRiRbEE@Base 2.0.21
 _ZTV7CommandI11BattleScene10BattleEnumLS1_50EIRiS2_S2_EE@Base 2.0.21
 _ZTV7CommandI11BattleScene10BattleEnumLS1_51EIRiRPSt10shared_ptrI13BattleChoicesEEE@Base 2.0.21
 _ZTV7CommandI11BattleScene10BattleEnumLS1_52EIRiS2_S2_EE@Base 2.0.21
 _ZTV7CommandI11BattleScene10BattleEnumLS1_53EIRiS2_S2_RbEE@Base 2.0.21
 _ZTV7CommandI11BattleScene10BattleEnumLS1_54EIRiRPSt10shared_ptrI16ShallowShownTeamEEE@Base 2.0.21
 _ZTV7CommandI11BattleScene10BattleEnumLS1_55EIRiEE@Base 2.0.21
 _ZTV7CommandI11BattleScene10BattleEnumLS1_56EIRiEE@Base 2.0.21
 _ZTV7CommandI11BattleScene10BattleEnumLS1_57EIRiS2_S2_EE@Base 2.0.21
 _ZTV7CommandI11BattleScene10BattleEnumLS1_58EIRiRPSt10shared_ptrI11BattleStatsEEE@Base 2.0.21
 _ZTV7CommandI11BattleScene10BattleEnumLS1_59EIRPSt10shared_ptrI7QStringEEE@Base 2.0.21
 _ZTV7CommandI11BattleScene10BattleEnumLS1_5EIRiS2_RbEE@Base 2.0.21
 _ZTV7CommandI11BattleScene10BattleEnumLS1_60EIRiEE@Base 2.0.21
 _ZTV7CommandI11BattleScene10BattleEnumLS1_61EIRiEE@Base 2.0.21
 _ZTV7CommandI11BattleScene10BattleEnumLS1_62EIRiS2_S2_EE@Base 2.0.21
 _ZTV7CommandI11BattleScene10BattleEnumLS1_63EIRiS2_EE@Base 2.0.21
 _ZTV7CommandI11BattleScene10BattleEnumLS1_64EIRiRPSt10shared_ptrI15RearrangeChoiceEEE@Base 2.0.21
 _ZTV7CommandI11BattleScene10BattleEnumLS1_65EIRiEE@Base 2.0.21
 _ZTV7CommandI11BattleScene10BattleEnumLS1_66EIRiEE@Base 2.0.21
 _ZTV7CommandI11BattleScene10BattleEnumLS1_67EIRiEE@Base 2.0.21
 _ZTV7CommandI11BattleScene10BattleEnumLS1_68EIRiS2_EE@Base 2.0.21
 _ZTV7CommandI11BattleScene10BattleEnumLS1_69EIRiS2_S2_EE@Base 2.0.21
 _ZTV7CommandI11BattleScene10BattleEnumLS1_6EIRiEE@Base 2.0.21
 _ZTV7CommandI11BattleScene10BattleEnumLS1_7EIRiS2_EE@Base 2.0.21
 _ZTV7CommandI11BattleScene10BattleEnumLS1_8EIRiS2_EE@Base 2.0.21
 _ZTV7CommandI11BattleScene10BattleEnumLS1_9EIRiEE@Base 2.0.21
 _ZTV9MoveProxy@Base 2.0.21
 _ZTV9PokeProxy@Base 2.0.21
 _ZTV9TeamProxy@Base 2.0.21
 _ZTV9ZoneProxy@Base 2.0.21
 _ZTVN19QDeclarativePrivate19QDeclarativeElementI10FieldProxyEE@Base 2.0.21
 _ZTVN19QDeclarativePrivate19QDeclarativeElementI11BattleSceneEE@Base 2.0.21
 _ZTVN19QDeclarativePrivate19QDeclarativeElementI16AuxPokeDataProxyEE@Base 2.0.21
 _ZTVN19QDeclarativePrivate19QDeclarativeElementI16MoveInfoAccessorEE@Base 2.0.21
 _ZTVN19QDeclarativePrivate19QDeclarativeElementI18BattleDefaultThemeEE@Base 2.0.21
 _ZTVN19QDeclarativePrivate19QDeclarativeElementI18ProxyDataContainerEE@Base 2.0.21
 _ZTVN19QDeclarativePrivate19QDeclarativeElementI9MoveProxyEE@Base 2.0.21
 _ZTVN19QDeclarativePrivate19QDeclarativeElementI9PokeProxyEE@Base 2.0.21
 _ZTVN19QDeclarativePrivate19QDeclarativeElementI9TeamProxyEE@Base 2.0.21
 _ZTVN19QDeclarativePrivate19QDeclarativeElementI9ZoneProxyEE@Base 2.0.21
 _ZTVSt15_Sp_counted_ptrIP11BattleStatsLN9__gnu_cxx12_Lock_policyE2EE@Base 2.0.21
 _ZTVSt15_Sp_counted_ptrIP13BattleChoicesLN9__gnu_cxx12_Lock_policyE2EE@Base 2.0.21
 _ZTVSt15_Sp_counted_ptrIP15RearrangeChoiceLN9__gnu_cxx12_Lock_policyE2EE@Base 2.0.21
 _ZTVSt15_Sp_counted_ptrIP16ShallowShownTeamLN9__gnu_cxx12_Lock_policyE2EE@Base 2.0.21
 _ZTVSt15_Sp_counted_ptrIP17ShallowBattlePokeLN9__gnu_cxx12_Lock_policyE2EE@Base 2.0.21
 _ZTVSt15_Sp_counted_ptrIP7QStringLN9__gnu_cxx12_Lock_policyE2EE@Base 2.0.21
 _ZTVSt16_Sp_counted_baseILN9__gnu_cxx12_Lock_policyE2EE@Base 2.0.21
 _ZThn16_N11BattleScene5pauseEi@Base 2.0.21
 _ZThn16_N11BattleScene7unpauseEi@Base 2.0.21
 _ZThn16_N11BattleSceneD0Ev@Base 2.0.21
 _ZThn16_N11BattleSceneD1Ev@Base 2.0.21
 _ZThn16_N12GraphicsZoneD0Ev@Base 2.0.21
 _ZThn16_N12GraphicsZoneD1Ev@Base 2.0.21
 _ZThn16_N15BattleClientLogD0Ev@Base 2.0.21
 _ZThn16_N15BattleClientLogD1Ev@Base 2.0.21
 _ZThn16_N18RegularBattleSceneD0Ev@Base 2.0.21
 _ZThn16_N18RegularBattleSceneD1Ev@Base 2.0.21
 _ZThn16_N19PokemonInfoAccessor13requestPixmapERK7QStringP5QSizeRKS3_@Base 2.0.21
 _ZThn16_N19PokemonInfoAccessorD0Ev@Base 2.0.21
 _ZThn16_N19PokemonInfoAccessorD1Ev@Base 2.0.21
 _ZThn16_N19QDeclarativePrivate19QDeclarativeElementI11BattleSceneED0Ev@Base 2.0.21
 _ZThn16_N19QDeclarativePrivate19QDeclarativeElementI11BattleSceneED1Ev@Base 2.0.21
 _ZThn40_N18RegularBattleSceneD0Ev@Base 2.0.21
 _ZThn40_N18RegularBattleSceneD1Ev@Base 2.0.21
 _ZZN11QMetaTypeIdIN7Pokemon8uniqueIdEE14qt_metatype_idEvE11metatype_id@Base 2.0.21
 main@Base 2.0.21
