libpo-utilities.so.1 libpo-utilities1 #MINVER#
 _Z10escapeHtmlRK7QString@Base 2.0.21
 _Z11appDataPathRK7QStringb@Base 2.0.21
 _Z12loadSettingsP7QWidgetRK5QSize@Base 2.0.21
 _Z12removeFolderRK7QString@Base 2.0.21
 _Z12testWritableRK7QString@Base 2.0.21
 _Z13writeSettingsP7QWidget@Base 2.0.21
 _Z14dump_backtracev@Base 2.0.21
 _Z15createIntMapperP7QObjectPKcS0_S2_i@Base 2.0.21
 _Z19cleanStringForFilesRK7QString@Base 2.0.21
 _Z21removeTrollCharactersRK7QString@Base 2.0.21
 _Z4slugRK7QString@Base 2.0.21
 _Z8md5_hashRK10QByteArray@Base 2.0.21
 _Z9cropImageR6QImage@Base 2.0.21
 _ZN10ConfigFile11qt_metacallEN11QMetaObject4CallEiPPv@Base 2.0.21
 _ZN10ConfigFile11qt_metacastEPKc@Base 2.0.21
 _ZN10ConfigFile16staticMetaObjectE@Base 2.0.21
 _ZN10ConfigFile17getInternalWidgetEv@Base 2.0.21
 _ZN10ConfigFile8findPathEv@Base 2.0.21
 _ZN10ConfigFile9updateValEv@Base 2.0.21
 _ZN10ConfigFileC1ERK7QStringRS0_@Base 2.0.21
 _ZN10ConfigFileC2ERK7QStringRS0_@Base 2.0.21
 _ZN10ConfigFileD0Ev@Base 2.0.21
 _ZN10ConfigFileD1Ev@Base 2.0.21
 _ZN10ConfigFileD2Ev@Base 2.0.21
 _ZN10ConfigForm11qt_metacallEN11QMetaObject4CallEiPPv@Base 2.0.21
 _ZN10ConfigForm11qt_metacastEPKc@Base 2.0.21
 _ZN10ConfigForm15addConfigHelperEP20AbstractConfigHelper@Base 2.0.21
 _ZN10ConfigForm16staticMetaObjectE@Base 2.0.21
 _ZN10ConfigForm20generateConfigWidgetEv@Base 2.0.21
 _ZN10ConfigForm7button1Ev@Base 2.0.21
 _ZN10ConfigForm7button2Ev@Base 2.0.21
 _ZN10ConfigForm9applyValsEv@Base 2.0.21
 _ZN10ConfigFormC1ERK7QStringS2_P7QObject@Base 2.0.21
 _ZN10ConfigFormC2ERK7QStringS2_P7QObject@Base 2.0.21
 _ZN10ConfigFormD0Ev@Base 2.0.21
 _ZN10ConfigFormD1Ev@Base 2.0.21
 _ZN10ConfigFormD2Ev@Base 2.0.21
 _ZN10ConfigLine17getInternalWidgetEv@Base 2.0.21
 _ZN10ConfigLine9updateValEv@Base 2.0.21
 _ZN10ConfigLineC1ERK7QStringRS0_@Base 2.0.21
 _ZN10ConfigLineC2ERK7QStringRS0_@Base 2.0.21
 _ZN10ConfigLineD0Ev@Base 2.0.21
 _ZN10ConfigLineD1Ev@Base 2.0.21
 _ZN10ConfigLineD2Ev@Base 2.0.21
 _ZN10ConfigSpin17getInternalWidgetEv@Base 2.0.21
 _ZN10ConfigSpin9updateValEv@Base 2.0.21
 _ZN10ConfigSpinC1ERK7QStringRiii@Base 2.0.21
 _ZN10ConfigSpinC2ERK7QStringRiii@Base 2.0.21
 _ZN10ConfigSpinD0Ev@Base 2.0.21
 _ZN10ConfigSpinD1Ev@Base 2.0.21
 _ZN10ConfigSpinD2Ev@Base 2.0.21
 _ZN10ConfigText17getInternalWidgetEv@Base 2.0.21
 _ZN10ConfigText9updateValEv@Base 2.0.21
 _ZN10ConfigTextC1ERK7QStringRS0_@Base 2.0.21
 _ZN10ConfigTextC2ERK7QStringRS0_@Base 2.0.21
 _ZN10ConfigTextD0Ev@Base 2.0.21
 _ZN10ConfigTextD1Ev@Base 2.0.21
 _ZN10ConfigTextD2Ev@Base 2.0.21
 _ZN10DataStreamC1EP10QByteArray6QFlagsIN9QIODevice12OpenModeFlagEE@Base 2.0.21
 _ZN10DataStreamC1EP9QIODevice@Base 2.0.21
 _ZN10DataStreamC1ERK10QByteArray@Base 2.0.21
 _ZN10DataStreamC1Ev@Base 2.0.21
 _ZN10DataStreamC2EP10QByteArray6QFlagsIN9QIODevice12OpenModeFlagEE@Base 2.0.21
 _ZN10DataStreamC2EP9QIODevice@Base 2.0.21
 _ZN10DataStreamC2ERK10QByteArray@Base 2.0.21
 _ZN10DataStreamC2Ev@Base 2.0.21
 _ZN10DataStreamD0Ev@Base 2.0.21
 _ZN10DataStreamD1Ev@Base 2.0.21
 _ZN10DataStreamD2Ev@Base 2.0.21
 _ZN10QByteArrayD1Ev@Base 2.0.21
 _ZN10QByteArrayD2Ev@Base 2.0.21
 _ZN10QClickPBar11qt_metacallEN11QMetaObject4CallEiPPv@Base 2.0.21
 _ZN10QClickPBar11qt_metacastEPKc@Base 2.0.21
 _ZN10QClickPBar15mousePressEventEP11QMouseEvent@Base 2.0.21
 _ZN10QClickPBar16staticMetaObjectE@Base 2.0.21
 _ZN10QClickPBar7clickedEv@Base 2.0.21
 _ZN10QClickPBarD0Ev@Base 2.0.21
 _ZN10QClickPBarD1Ev@Base 2.0.21
 _ZN10QClickPBarD2Ev@Base 2.0.21
 _ZN10QTablePlus11qt_metacallEN11QMetaObject4CallEiPPv@Base 2.0.21
 _ZN10QTablePlus11qt_metacastEPKc@Base 2.0.21
 _ZN10QTablePlus14currentChangedERK11QModelIndexS2_@Base 2.0.21
 _ZN10QTablePlus16staticMetaObjectE@Base 2.0.21
 _ZN10QTablePlus18currentCellChangedE11QModelIndex@Base 2.0.21
 _ZN10QTablePlusC1EP7QWidget@Base 2.0.21
 _ZN10QTablePlusC2EP7QWidget@Base 2.0.21
 _ZN10QTablePlusD0Ev@Base 2.0.21
 _ZN10QTablePlusD1Ev@Base 2.0.21
 _ZN10QTablePlusD2Ev@Base 2.0.21
 _ZN11ConfigCheck17getInternalWidgetEv@Base 2.0.21
 _ZN11ConfigCheck9updateValEv@Base 2.0.21
 _ZN11ConfigCheckC1ERK7QStringRb@Base 2.0.21
 _ZN11ConfigCheckC2ERK7QStringRb@Base 2.0.21
 _ZN11ConfigCheckD0Ev@Base 2.0.21
 _ZN11ConfigCheckD1Ev@Base 2.0.21
 _ZN11ConfigCheckD2Ev@Base 2.0.21
 _ZN11QClickLabel11qt_metacallEN11QMetaObject4CallEiPPv@Base 2.0.21
 _ZN11QClickLabel11qt_metacastEPKc@Base 2.0.21
 _ZN11QClickLabel15mousePressEventEP11QMouseEvent@Base 2.0.21
 _ZN11QClickLabel16staticMetaObjectE@Base 2.0.21
 _ZN11QClickLabel7clickedEv@Base 2.0.21
 _ZN11QClickLabelC1EP7QWidget@Base 2.0.21
 _ZN11QClickLabelC2EP7QWidget@Base 2.0.21
 _ZN11QClickLabelD0Ev@Base 2.0.21
 _ZN11QClickLabelD1Ev@Base 2.0.21
 _ZN11QClickLabelD2Ev@Base 2.0.21
 _ZN11QSideBySideC1EP7QWidgetS1_@Base 2.0.21
 _ZN11QSideBySideC2EP7QWidgetS1_@Base 2.0.21
 _ZN11QSideBySideD0Ev@Base 2.0.21
 _ZN11QSideBySideD1Ev@Base 2.0.21
 _ZN11QSideBySideD2Ev@Base 2.0.21
 _ZN11QStringListD1Ev@Base 2.0.21
 _ZN11QStringListD2Ev@Base 2.0.21
 _ZN12ConfigHelperI7QStringED0Ev@Base 2.0.21
 _ZN12ConfigHelperI7QStringED1Ev@Base 2.0.21
 _ZN12ConfigHelperI7QStringED2Ev@Base 2.0.21
 _ZN12ConfigHelperIbED0Ev@Base 2.0.21
 _ZN12ConfigHelperIbED1Ev@Base 2.0.21
 _ZN12ConfigHelperIbED2Ev@Base 2.0.21
 _ZN12ConfigHelperIiED0Ev@Base 2.0.21
 _ZN12ConfigHelperIiED1Ev@Base 2.0.21
 _ZN12ConfigHelperIiED2Ev@Base 2.0.21
 _ZN12ConfigSlider17getInternalWidgetEv@Base 2.0.21
 _ZN12ConfigSlider9updateValEv@Base 2.0.21
 _ZN12ConfigSliderC1ERK7QStringRiii@Base 2.0.21
 _ZN12ConfigSliderC2ERK7QStringRiii@Base 2.0.21
 _ZN12ConfigSliderD0Ev@Base 2.0.21
 _ZN12ConfigSliderD1Ev@Base 2.0.21
 _ZN12ConfigSliderD2Ev@Base 2.0.21
 _ZN12MTRand_int324seedEPKmi@Base 2.0.21
 _ZN12MTRand_int324seedEm@Base 2.0.21
 _ZN12MTRand_int329gen_stateEv@Base 2.0.21
 _ZN12QIRCLineEdit10setPlayersEP18QAbstractItemModel@Base 2.0.21
 _ZN12QIRCLineEdit11qt_metacallEN11QMetaObject4CallEiPPv@Base 2.0.21
 _ZN12QIRCLineEdit11qt_metacastEPKc@Base 2.0.21
 _ZN12QIRCLineEdit13keyPressEventEP9QKeyEvent@Base 2.0.21
 _ZN12QIRCLineEdit16staticMetaObjectE@Base 2.0.21
 _ZN12QIRCLineEdit5clearEv@Base 2.0.21
 _ZN12QIRCLineEdit5eventEP6QEvent@Base 2.0.21
 _ZN12QIRCLineEditC1Ev@Base 2.0.21
 _ZN12QIRCLineEditC2Ev@Base 2.0.21
 _ZN12QIRCLineEditD0Ev@Base 2.0.21
 _ZN12QIRCLineEditD1Ev@Base 2.0.21
 _ZN12QIRCLineEditD2Ev@Base 2.0.21
 _ZN12QImageButton10changePicsERK7QPixmapS2_S2_@Base 2.0.21
 _ZN12QImageButton10changePicsERK7QStringS2_S2_@Base 2.0.21
 _ZN12QImageButton10paintEventEP11QPaintEvent@Base 2.0.21
 _ZN12QImageButton11qt_metacallEN11QMetaObject4CallEiPPv@Base 2.0.21
 _ZN12QImageButton11qt_metacastEPKc@Base 2.0.21
 _ZN12QImageButton15mousePressEventEP11QMouseEvent@Base 2.0.21
 _ZN12QImageButton16staticMetaObjectE@Base 2.0.21
 _ZN12QImageButton17mouseReleaseEventEP11QMouseEvent@Base 2.0.21
 _ZN12QImageButton5eventEP6QEvent@Base 2.0.21
 _ZN12QImageButtonC1EP7QWidget@Base 2.0.21
 _ZN12QImageButtonC1ERK7QStringS2_S2_@Base 2.0.21
 _ZN12QImageButtonC2EP7QWidget@Base 2.0.21
 _ZN12QImageButtonC2ERK7QStringS2_S2_@Base 2.0.21
 _ZN12QImageButtonD0Ev@Base 2.0.21
 _ZN12QImageButtonD1Ev@Base 2.0.21
 _ZN12QImageButtonD2Ev@Base 2.0.21
 _ZN13ContextCallee4exitEv@Base 2.0.21
 _ZN13ContextCallee4waitEv@Base 2.0.21
 _ZN13ContextCallee5startER15ContextSwitcher@Base 2.0.21
 _ZN13ContextCallee5yieldEv@Base 2.0.21
 _ZN13ContextCallee8finishedEv@Base 2.0.21
 _ZN13ContextCallee8scheduleEv@Base 2.0.21
 _ZN13ContextCallee9terminateEv@Base 2.0.21
 _ZN13ContextCalleeC1El@Base 2.0.21
 _ZN13ContextCalleeC2El@Base 2.0.21
 _ZN13ContextCalleeD0Ev@Base 2.0.21
 _ZN13ContextCalleeD1Ev@Base 2.0.21
 _ZN13ContextCalleeD2Ev@Base 2.0.21
 _ZN13QCompactTable11makeCompactEP10QTableView@Base 2.0.21
 _ZN13QCompactTable11qt_metacallEN11QMetaObject4CallEiPPv@Base 2.0.21
 _ZN13QCompactTable11qt_metacastEPKc@Base 2.0.21
 _ZN13QCompactTable16staticMetaObjectE@Base 2.0.21
 _ZN13QCompactTableC1Eii@Base 2.0.21
 _ZN13QCompactTableC2Eii@Base 2.0.21
 _ZN13QCompactTableD0Ev@Base 2.0.21
 _ZN13QCompactTableD1Ev@Base 2.0.21
 _ZN13QCompactTableD2Ev@Base 2.0.21
 _ZN13QDummyGrabber11qt_metacallEN11QMetaObject4CallEiPPv@Base 2.0.21
 _ZN13QDummyGrabber11qt_metacastEPKc@Base 2.0.21
 _ZN13QDummyGrabber16staticMetaObjectE@Base 2.0.21
 _ZN13QDummyGrabberC1Ev@Base 2.0.21
 _ZN13QDummyGrabberC2Ev@Base 2.0.21
 _ZN13QDummyGrabberD0Ev@Base 2.0.21
 _ZN13QDummyGrabberD1Ev@Base 2.0.21
 _ZN13QDummyGrabberD2Ev@Base 2.0.21
 _ZN13QImageButtonP10changePicsERK7QStringS2_S2_S2_@Base 2.0.21
 _ZN13QImageButtonP10paintEventEP11QPaintEvent@Base 2.0.21
 _ZN13QImageButtonP11qt_metacallEN11QMetaObject4CallEiPPv@Base 2.0.21
 _ZN13QImageButtonP11qt_metacastEPKc@Base 2.0.21
 _ZN13QImageButtonP14mouseMoveEventEP11QMouseEvent@Base 2.0.21
 _ZN13QImageButtonP15mousePressEventEP11QMouseEvent@Base 2.0.21
 _ZN13QImageButtonP16staticMetaObjectE@Base 2.0.21
 _ZN13QImageButtonP17mouseReleaseEventEP11QMouseEvent@Base 2.0.21
 _ZN13QImageButtonPC1ERK7QStringS2_S2_S2_@Base 2.0.21
 _ZN13QImageButtonPC2ERK7QStringS2_S2_S2_@Base 2.0.21
 _ZN13QImageButtonPD0Ev@Base 2.0.21
 _ZN13QImageButtonPD1Ev@Base 2.0.21
 _ZN13QImageButtonPD2Ev@Base 2.0.21
 _ZN14QImageButtonLR10rightClickEv@Base 2.0.21
 _ZN14QImageButtonLR11qt_metacallEN11QMetaObject4CallEiPPv@Base 2.0.21
 _ZN14QImageButtonLR11qt_metacastEPKc@Base 2.0.21
 _ZN14QImageButtonLR16staticMetaObjectE@Base 2.0.21
 _ZN14QImageButtonLR17mouseReleaseEventEP11QMouseEvent@Base 2.0.21
 _ZN14QImageButtonLR9leftClickEv@Base 2.0.21
 _ZN14QImageButtonLRC1EP7QWidget@Base 2.0.21
 _ZN14QImageButtonLRC1ERK7QStringS2_@Base 2.0.21
 _ZN14QImageButtonLRC2EP7QWidget@Base 2.0.21
 _ZN14QImageButtonLRC2ERK7QStringS2_@Base 2.0.21
 _ZN14QImageButtonLRD0Ev@Base 2.0.21
 _ZN14QImageButtonLRD1Ev@Base 2.0.21
 _ZN14QImageButtonLRD2Ev@Base 2.0.21
 _ZN14QMimeOnDesktop12setExtensionERK7QString@Base 2.0.21
 _ZN14QMimeOnDesktop7setDataERK10QByteArray@Base 2.0.21
 _ZN14QMimeOnDesktopD0Ev@Base 2.0.21
 _ZN14QMimeOnDesktopD1Ev@Base 2.0.21
 _ZN14QMimeOnDesktopD2Ev@Base 2.0.21
 _ZN14QNickValidator11qt_metacallEN11QMetaObject4CallEiPPv@Base 2.0.21
 _ZN14QNickValidator11qt_metacastEPKc@Base 2.0.21
 _ZN14QNickValidator16staticMetaObjectE@Base 2.0.21
 _ZN14QNickValidatorC1EP7QWidget@Base 2.0.21
 _ZN14QNickValidatorC2EP7QWidget@Base 2.0.21
 _ZN14QNickValidatorD0Ev@Base 2.0.21
 _ZN14QNickValidatorD1Ev@Base 2.0.21
 _ZN14QNickValidatorD2Ev@Base 2.0.21
 _ZN14VersionControlC1Eh@Base 2.0.21
 _ZN14VersionControlC2Eh@Base 2.0.21
 _ZN15ContextSwitcher12runNewCalleeEP13ContextCallee@Base 2.0.21
 _ZN15ContextSwitcher13runNewCalleeSEPv@Base 2.0.21
 _ZN15ContextSwitcher14create_contextEP12coro_contextPFvPvES2_S2_l@Base 2.0.21
 _ZN15ContextSwitcher14switch_contextEP13ContextCallee@Base 2.0.21
 _ZN15ContextSwitcher3runEv@Base 2.0.21
 _ZN15ContextSwitcher5pauseEv@Base 2.0.21
 _ZN15ContextSwitcher5yieldEv@Base 2.0.21
 _ZN15ContextSwitcher6finishEv@Base 2.0.21
 _ZN15ContextSwitcher7unpauseEv@Base 2.0.21
 _ZN15ContextSwitcher8guardianE@Base 2.0.21
 _ZN15ContextSwitcher8scheduleEP13ContextCallee@Base 2.0.21
 _ZN15ContextSwitcher9terminateEP13ContextCallee@Base 2.0.21
 _ZN15ContextSwitcherC1Ev@Base 2.0.21
 _ZN15ContextSwitcherC2Ev@Base 2.0.21
 _ZN15ContextSwitcherD0Ev@Base 2.0.21
 _ZN15ContextSwitcherD1Ev@Base 2.0.21
 _ZN15ContextSwitcherD2Ev@Base 2.0.21
 _ZN15QDraggableLabel15mousePressEventEP11QMouseEvent@Base 2.0.21
 _ZN15QDraggableLabelD0Ev@Base 2.0.21
 _ZN15QDraggableLabelD1Ev@Base 2.0.21
 _ZN15QDraggableLabelD2Ev@Base 2.0.21
 _ZN15QListWidgetItem18setBackgroundColorERK6QColor@Base 2.0.21
 _ZN16QCloseDockWidget10closeEventEP11QCloseEvent@Base 2.0.21
 _ZN16QCloseDockWidget11qt_metacallEN11QMetaObject4CallEiPPv@Base 2.0.21
 _ZN16QCloseDockWidget11qt_metacastEPKc@Base 2.0.21
 _ZN16QCloseDockWidget16staticMetaObjectE@Base 2.0.21
 _ZN16QCloseDockWidget6closedEv@Base 2.0.21
 _ZN16QCloseDockWidgetC1ERK7QStringP7QWidget@Base 2.0.21
 _ZN16QCloseDockWidgetC2ERK7QStringP7QWidget@Base 2.0.21
 _ZN16QCloseDockWidgetD0Ev@Base 2.0.21
 _ZN16QCloseDockWidgetD1Ev@Base 2.0.21
 _ZN16QCloseDockWidgetD2Ev@Base 2.0.21
 _ZN17QIdListWidgetItem5setIdEi@Base 2.0.21
 _ZN17QIdListWidgetItem8setColorERK6QColor@Base 2.0.21
 _ZN17QIdListWidgetItemC1EiRK5QIconRK7QString@Base 2.0.21
 _ZN17QIdListWidgetItemC1EiRK7QString@Base 2.0.21
 _ZN17QIdListWidgetItemC2EiRK5QIconRK7QString@Base 2.0.21
 _ZN17QIdListWidgetItemC2EiRK7QString@Base 2.0.21
 _ZN17QIdListWidgetItemD0Ev@Base 2.0.21
 _ZN17QIdListWidgetItemD1Ev@Base 2.0.21
 _ZN17QIdListWidgetItemD2Ev@Base 2.0.21
 _ZN17QIdTreeWidgetItem8setColorERK6QColor@Base 2.0.21
 _ZN17QIdTreeWidgetItemC1EiRK11QStringList@Base 2.0.21
 _ZN17QIdTreeWidgetItemC2EiRK11QStringList@Base 2.0.21
 _ZN17QIdTreeWidgetItemD0Ev@Base 2.0.21
 _ZN17QIdTreeWidgetItemD1Ev@Base 2.0.21
 _ZN17QIdTreeWidgetItemD2Ev@Base 2.0.21
 _ZN19DynamicLibExceptionC1ERKSs@Base 2.0.21
 _ZN19DynamicLibExceptionC2ERKSs@Base 2.0.21
 _ZN19DynamicLibExceptionD0Ev@Base 2.0.21
 _ZN19DynamicLibExceptionD1Ev@Base 2.0.21
 _ZN19DynamicLibExceptionD2Ev@Base 2.0.21
 _ZN19QVerticalScrollArea11eventFilterEP7QObjectP6QEvent@Base 2.0.21
 _ZN19QVerticalScrollArea11qt_metacallEN11QMetaObject4CallEiPPv@Base 2.0.21
 _ZN19QVerticalScrollArea11qt_metacastEPKc@Base 2.0.21
 _ZN19QVerticalScrollArea16staticMetaObjectE@Base 2.0.21
 _ZN19QVerticalScrollArea9setWidgetEP7QWidget@Base 2.0.21
 _ZN19QVerticalScrollAreaC1EP7QWidget@Base 2.0.21
 _ZN19QVerticalScrollAreaC2EP7QWidget@Base 2.0.21
 _ZN19QVerticalScrollAreaD0Ev@Base 2.0.21
 _ZN19QVerticalScrollAreaD1Ev@Base 2.0.21
 _ZN19QVerticalScrollAreaD2Ev@Base 2.0.21
 _ZN20AbstractConfigHelper17getInternalWidgetEv@Base 2.0.21
 _ZN20AbstractConfigHelper20generateConfigWidgetEv@Base 2.0.21
 _ZN20AbstractConfigHelper9updateValEv@Base 2.0.21
 _ZN20AbstractConfigHelperC1ERK7QString@Base 2.0.21
 _ZN20AbstractConfigHelperC2ERK7QString@Base 2.0.21
 _ZN20AbstractConfigHelperD0Ev@Base 2.0.21
 _ZN20AbstractConfigHelperD1Ev@Base 2.0.21
 _ZN20AbstractConfigHelperD2Ev@Base 2.0.21
 _ZN22QDragReactiveTabWidget13dragMoveEventEP14QDragMoveEvent@Base 2.0.21
 _ZN22QDragReactiveTabWidget14dragEnterEventEP15QDragEnterEvent@Base 2.0.21
 _ZN22QDragReactiveTabWidgetC1EP7QWidget@Base 2.0.21
 _ZN22QDragReactiveTabWidgetC2EP7QWidget@Base 2.0.21
 _ZN22QDragReactiveTabWidgetD0Ev@Base 2.0.21
 _ZN22QDragReactiveTabWidgetD1Ev@Base 2.0.21
 _ZN22QDragReactiveTabWidgetD2Ev@Base 2.0.21
 _ZN22QScrollDownTextBrowser10insertHtmlERK7QString@Base 2.0.21
 _ZN22QScrollDownTextBrowser11qt_metacallEN11QMetaObject4CallEiPPv@Base 2.0.21
 _ZN22QScrollDownTextBrowser11qt_metacastEPKc@Base 2.0.21
 _ZN22QScrollDownTextBrowser15insertPlainTextERK7QString@Base 2.0.21
 _ZN22QScrollDownTextBrowser16contextMenuEventEP17QContextMenuEvent@Base 2.0.21
 _ZN22QScrollDownTextBrowser16staticMetaObjectE@Base 2.0.21
 _ZN22QScrollDownTextBrowser5clearEv@Base 2.0.21
 _ZN22QScrollDownTextBrowser9keepLinesEi@Base 2.0.21
 _ZN22QScrollDownTextBrowserC1EP7QWidget@Base 2.0.21
 _ZN22QScrollDownTextBrowserC2EP7QWidget@Base 2.0.21
 _ZN22QScrollDownTextBrowserD0Ev@Base 2.0.21
 _ZN22QScrollDownTextBrowserD1Ev@Base 2.0.21
 _ZN22QScrollDownTextBrowserD2Ev@Base 2.0.21
 _ZN3Zip12writeArchiveEv@Base 2.0.21
 _ZN3Zip13addMemoryFileERK10QByteArrayRK7QString@Base 2.0.21
 _ZN3Zip4openERK7QString@Base 2.0.21
 _ZN3Zip5closeEv@Base 2.0.21
 _ZN3Zip6createERK7QString@Base 2.0.21
 _ZN3Zip7addFileERK7QStringS2_@Base 2.0.21
 _ZN3Zip9extractToERK7QString@Base 2.0.21
 _ZN3ZipC1Ev@Base 2.0.21
 _ZN3ZipC2Ev@Base 2.0.21
 _ZN3ZipD1Ev@Base 2.0.21
 _ZN3ZipD2Ev@Base 2.0.21
 _ZN5Flags7setFlagEib@Base 2.0.21
 _ZN5Flags8setFlagsEj@Base 2.0.21
 _ZN5FlagsC1Ej@Base 2.0.21
 _ZN5FlagsC2Ej@Base 2.0.21
 _ZN5QHashIP13ContextCallee15QHashDummyValueE11deleteNode2EPN9QHashData4NodeE@Base 2.0.21
 _ZN5QHashIP13ContextCallee15QHashDummyValueE13duplicateNodeEPN9QHashData4NodeEPv@Base 2.0.21
 _ZN5QHashIP13ContextCallee15QHashDummyValueE6removeERKS1_@Base 2.0.21
 _ZN5QHashIP13ContextCallee15QHashDummyValueED1Ev@Base 2.0.21
 _ZN5QHashIP13ContextCallee15QHashDummyValueED2Ev@Base 2.0.21
 _ZN5QListI4QUrlE18detach_helper_growEii@Base 2.0.21
 _ZN5QListI4QUrlE6appendERKS0_@Base 2.0.21
 _ZN5QListI4QUrlED1Ev@Base 2.0.21
 _ZN5QListI4QUrlED2Ev@Base 2.0.21
 _ZN5QListI5QCharE18detach_helper_growEii@Base 2.0.21
 _ZN5QListI5QCharE6appendERKS0_@Base 2.0.21
 _ZN5QListI5QCharED1Ev@Base 2.0.21
 _ZN5QListI5QCharED2Ev@Base 2.0.21
 _ZN5QListI5QPairIP13ContextCalleeN15ContextSwitcher10SchedulingEEE13detach_helperEi@Base 2.0.21
 _ZN5QListI5QPairIP13ContextCalleeN15ContextSwitcher10SchedulingEEE18detach_helper_growEii@Base 2.0.21
 _ZN5QListI5QPairIP13ContextCalleeN15ContextSwitcher10SchedulingEEE6appendERKS5_@Base 2.0.21
 _ZN5QListI5QPairIP13ContextCalleeN15ContextSwitcher10SchedulingEEED1Ev@Base 2.0.21
 _ZN5QListI5QPairIP13ContextCalleeN15ContextSwitcher10SchedulingEEED2Ev@Base 2.0.21
 _ZN5QListI7QStringE13detach_helperEi@Base 2.0.21
 _ZN5QListI7QStringE18detach_helper_growEii@Base 2.0.21
 _ZN5QListI7QStringE6appendERKS0_@Base 2.0.21
 _ZN5QListI7QStringED1Ev@Base 2.0.21
 _ZN5QListI7QStringED2Ev@Base 2.0.21
 _ZN5QListIP20AbstractConfigHelperE18detach_helper_growEii@Base 2.0.21
 _ZN5QListIP20AbstractConfigHelperE6appendERKS1_@Base 2.0.21
 _ZN5QListIP20AbstractConfigHelperED1Ev@Base 2.0.21
 _ZN5QListIP20AbstractConfigHelperED2Ev@Base 2.0.21
 _ZN5cross14DynamicLibrary11GetFunctionEPKc@Base 2.0.21
 _ZN5cross14DynamicLibraryC1EPKc@Base 2.0.21
 _ZN5cross14DynamicLibraryC2EPKc@Base 2.0.21
 _ZN5cross14DynamicLibraryD1Ev@Base 2.0.21
 _ZN5cross14DynamicLibraryD2Ev@Base 2.0.21
 _ZN6QDebugD1Ev@Base 2.0.21
 _ZN6QDebugD2Ev@Base 2.0.21
 _ZN7QStringD1Ev@Base 2.0.21
 _ZN7QStringD2Ev@Base 2.0.21
 _ZN9QEntitled11qt_metacallEN11QMetaObject4CallEiPPv@Base 2.0.21
 _ZN9QEntitled11qt_metacastEPKc@Base 2.0.21
 _ZN9QEntitled16staticMetaObjectE@Base 2.0.21
 _ZN9QEntitled8setTitleERK7QString@Base 2.0.21
 _ZN9QEntitled9setWidgetEP7QWidget@Base 2.0.21
 _ZN9QEntitledC1ERK7QStringP7QWidget@Base 2.0.21
 _ZN9QEntitledC2ERK7QStringP7QWidget@Base 2.0.21
 _ZN9QEntitledD0Ev@Base 2.0.21
 _ZN9QEntitledD1Ev@Base 2.0.21
 _ZN9QEntitledD2Ev@Base 2.0.21
 _ZNK10ConfigFile10metaObjectEv@Base 2.0.21
 _ZNK10ConfigForm10metaObjectEv@Base 2.0.21
 _ZNK10QClickPBar10metaObjectEv@Base 2.0.21
 _ZNK10QTablePlus10metaObjectEv@Base 2.0.21
 _ZNK11QClickLabel10metaObjectEv@Base 2.0.21
 _ZNK12QIRCLineEdit10metaObjectEv@Base 2.0.21
 _ZNK12QImageButton10metaObjectEv@Base 2.0.21
 _ZNK12QImageButton11maximumSizeEv@Base 2.0.21
 _ZNK12QImageButton15minimumSizeHintEv@Base 2.0.21
 _ZNK12QImageButton8sizeHintEv@Base 2.0.21
 _ZNK13QCompactTable10metaObjectEv@Base 2.0.21
 _ZNK13QDummyGrabber10metaObjectEv@Base 2.0.21
 _ZNK13QImageButtonP10metaObjectEv@Base 2.0.21
 _ZNK13QImageButtonP11maximumSizeEv@Base 2.0.21
 _ZNK13QImageButtonP15minimumSizeHintEv@Base 2.0.21
 _ZNK13QImageButtonP8sizeHintEv@Base 2.0.21
 _ZNK14QImageButtonLR10metaObjectEv@Base 2.0.21
 _ZNK14QMimeOnDesktop12retrieveDataERK7QStringN8QVariant4TypeE@Base 2.0.21
 _ZNK14QNickValidator10metaObjectEv@Base 2.0.21
 _ZNK14QNickValidator12isBegEndCharE5QChar@Base 2.0.21
 _ZNK14QNickValidator5fixupER7QString@Base 2.0.21
 _ZNK14QNickValidator8validateER7QStringRi@Base 2.0.21
 _ZNK14QNickValidator8validateERK7QString@Base 2.0.21
 _ZNK16QCloseDockWidget10metaObjectEv@Base 2.0.21
 _ZNK17QIdListWidgetItem2idEv@Base 2.0.21
 _ZNK17QIdListWidgetItemltERK15QListWidgetItem@Base 2.0.21
 _ZNK17QIdTreeWidgetItem2idEv@Base 2.0.21
 _ZNK17QIdTreeWidgetItemltERK15QTreeWidgetItem@Base 2.0.21
 _ZNK19DynamicLibException4whatEv@Base 2.0.21
 _ZNK19QVerticalScrollArea10metaObjectEv@Base 2.0.21
 _ZNK22QScrollDownTextBrowser10metaObjectEv@Base 2.0.21
 _ZNK3ZipcvbEv@Base 2.0.21
 _ZNK5FlagsixEi@Base 2.0.21
 _ZNK5QHashIP13ContextCallee15QHashDummyValueE8findNodeERKS1_Pj@Base 2.0.21
 _ZNK9QEntitled10metaObjectEv@Base 2.0.21
 _ZTI10ConfigFile@Base 2.0.21
 _ZTI10ConfigForm@Base 2.0.21
 _ZTI10ConfigLine@Base 2.0.21
 _ZTI10ConfigSpin@Base 2.0.21
 _ZTI10ConfigText@Base 2.0.21
 _ZTI10DataStream@Base 2.0.21
 _ZTI10QClickPBar@Base 2.0.21
 _ZTI10QTablePlus@Base 2.0.21
 _ZTI11ConfigCheck@Base 2.0.21
 _ZTI11QClickLabel@Base 2.0.21
 _ZTI11QSideBySide@Base 2.0.21
 _ZTI12ConfigHelperI7QStringE@Base 2.0.21
 _ZTI12ConfigHelperIbE@Base 2.0.21
 _ZTI12ConfigHelperIiE@Base 2.0.21
 _ZTI12ConfigSlider@Base 2.0.21
 _ZTI12QIRCLineEdit@Base 2.0.21
 _ZTI12QImageButton@Base 2.0.21
 _ZTI13ContextCallee@Base 2.0.21
 _ZTI13ContextQuitEx@Base 2.0.21
 _ZTI13QCompactTable@Base 2.0.21
 _ZTI13QDummyGrabber@Base 2.0.21
 _ZTI13QImageButtonP@Base 2.0.21
 _ZTI14QImageButtonLR@Base 2.0.21
 _ZTI14QMimeOnDesktop@Base 2.0.21
 _ZTI14QNickValidator@Base 2.0.21
 _ZTI15ContextSwitcher@Base 2.0.21
 _ZTI15QDraggableLabel@Base 2.0.21
 _ZTI16QCloseDockWidget@Base 2.0.21
 _ZTI17QIdListWidgetItem@Base 2.0.21
 _ZTI17QIdTreeWidgetItem@Base 2.0.21
 _ZTI19DynamicLibException@Base 2.0.21
 _ZTI19QVerticalScrollArea@Base 2.0.21
 _ZTI20AbstractConfigHelper@Base 2.0.21
 _ZTI22QDragReactiveTabWidget@Base 2.0.21
 _ZTI22QScrollDownTextBrowser@Base 2.0.21
 _ZTI9QEntitled@Base 2.0.21
 _ZTS10ConfigFile@Base 2.0.21
 _ZTS10ConfigForm@Base 2.0.21
 _ZTS10ConfigLine@Base 2.0.21
 _ZTS10ConfigSpin@Base 2.0.21
 _ZTS10ConfigText@Base 2.0.21
 _ZTS10DataStream@Base 2.0.21
 _ZTS10QClickPBar@Base 2.0.21
 _ZTS10QTablePlus@Base 2.0.21
 _ZTS11ConfigCheck@Base 2.0.21
 _ZTS11QClickLabel@Base 2.0.21
 _ZTS11QSideBySide@Base 2.0.21
 _ZTS12ConfigHelperI7QStringE@Base 2.0.21
 _ZTS12ConfigHelperIbE@Base 2.0.21
 _ZTS12ConfigHelperIiE@Base 2.0.21
 _ZTS12ConfigSlider@Base 2.0.21
 _ZTS12QIRCLineEdit@Base 2.0.21
 _ZTS12QImageButton@Base 2.0.21
 _ZTS13ContextCallee@Base 2.0.21
 _ZTS13ContextQuitEx@Base 2.0.21
 _ZTS13QCompactTable@Base 2.0.21
 _ZTS13QDummyGrabber@Base 2.0.21
 _ZTS13QImageButtonP@Base 2.0.21
 _ZTS14QImageButtonLR@Base 2.0.21
 _ZTS14QMimeOnDesktop@Base 2.0.21
 _ZTS14QNickValidator@Base 2.0.21
 _ZTS15ContextSwitcher@Base 2.0.21
 _ZTS15QDraggableLabel@Base 2.0.21
 _ZTS16QCloseDockWidget@Base 2.0.21
 _ZTS17QIdListWidgetItem@Base 2.0.21
 _ZTS17QIdTreeWidgetItem@Base 2.0.21
 _ZTS19DynamicLibException@Base 2.0.21
 _ZTS19QVerticalScrollArea@Base 2.0.21
 _ZTS20AbstractConfigHelper@Base 2.0.21
 _ZTS22QDragReactiveTabWidget@Base 2.0.21
 _ZTS22QScrollDownTextBrowser@Base 2.0.21
 _ZTS9QEntitled@Base 2.0.21
 _ZTV10ConfigFile@Base 2.0.21
 _ZTV10ConfigForm@Base 2.0.21
 _ZTV10ConfigLine@Base 2.0.21
 _ZTV10ConfigSpin@Base 2.0.21
 _ZTV10ConfigText@Base 2.0.21
 _ZTV10DataStream@Base 2.0.21
 _ZTV10QClickPBar@Base 2.0.21
 _ZTV10QTablePlus@Base 2.0.21
 _ZTV11ConfigCheck@Base 2.0.21
 _ZTV11QClickLabel@Base 2.0.21
 _ZTV11QSideBySide@Base 2.0.21
 _ZTV12ConfigHelperI7QStringE@Base 2.0.21
 _ZTV12ConfigHelperIbE@Base 2.0.21
 _ZTV12ConfigHelperIiE@Base 2.0.21
 _ZTV12ConfigSlider@Base 2.0.21
 _ZTV12QIRCLineEdit@Base 2.0.21
 _ZTV12QImageButton@Base 2.0.21
 _ZTV13ContextCallee@Base 2.0.21
 _ZTV13QCompactTable@Base 2.0.21
 _ZTV13QDummyGrabber@Base 2.0.21
 _ZTV13QImageButtonP@Base 2.0.21
 _ZTV14QImageButtonLR@Base 2.0.21
 _ZTV14QMimeOnDesktop@Base 2.0.21
 _ZTV14QNickValidator@Base 2.0.21
 _ZTV15ContextSwitcher@Base 2.0.21
 _ZTV15QDraggableLabel@Base 2.0.21
 _ZTV16QCloseDockWidget@Base 2.0.21
 _ZTV17QIdListWidgetItem@Base 2.0.21
 _ZTV17QIdTreeWidgetItem@Base 2.0.21
 _ZTV19DynamicLibException@Base 2.0.21
 _ZTV19QVerticalScrollArea@Base 2.0.21
 _ZTV20AbstractConfigHelper@Base 2.0.21
 _ZTV22QDragReactiveTabWidget@Base 2.0.21
 _ZTV22QScrollDownTextBrowser@Base 2.0.21
 _ZTV9QEntitled@Base 2.0.21
 _ZThn16_N10ConfigFile17getInternalWidgetEv@Base 2.0.21
 _ZThn16_N10ConfigFile9updateValEv@Base 2.0.21
 _ZThn16_N10ConfigFileD0Ev@Base 2.0.21
 _ZThn16_N10ConfigFileD1Ev@Base 2.0.21
 _ZThn16_N10QClickPBarD0Ev@Base 2.0.21
 _ZThn16_N10QClickPBarD1Ev@Base 2.0.21
 _ZThn16_N10QTablePlusD0Ev@Base 2.0.21
 _ZThn16_N10QTablePlusD1Ev@Base 2.0.21
 _ZThn16_N11QClickLabelD0Ev@Base 2.0.21
 _ZThn16_N11QClickLabelD1Ev@Base 2.0.21
 _ZThn16_N11QSideBySideD0Ev@Base 2.0.21
 _ZThn16_N11QSideBySideD1Ev@Base 2.0.21
 _ZThn16_N12QIRCLineEditD0Ev@Base 2.0.21
 _ZThn16_N12QIRCLineEditD1Ev@Base 2.0.21
 _ZThn16_N12QImageButtonD0Ev@Base 2.0.21
 _ZThn16_N12QImageButtonD1Ev@Base 2.0.21
 _ZThn16_N13QCompactTableD0Ev@Base 2.0.21
 _ZThn16_N13QCompactTableD1Ev@Base 2.0.21
 _ZThn16_N13QDummyGrabberD0Ev@Base 2.0.21
 _ZThn16_N13QDummyGrabberD1Ev@Base 2.0.21
 _ZThn16_N13QImageButtonPD0Ev@Base 2.0.21
 _ZThn16_N13QImageButtonPD1Ev@Base 2.0.21
 _ZThn16_N14QImageButtonLRD0Ev@Base 2.0.21
 _ZThn16_N14QImageButtonLRD1Ev@Base 2.0.21
 _ZThn16_N15QDraggableLabelD0Ev@Base 2.0.21
 _ZThn16_N15QDraggableLabelD1Ev@Base 2.0.21
 _ZThn16_N16QCloseDockWidgetD0Ev@Base 2.0.21
 _ZThn16_N16QCloseDockWidgetD1Ev@Base 2.0.21
 _ZThn16_N19QVerticalScrollAreaD0Ev@Base 2.0.21
 _ZThn16_N19QVerticalScrollAreaD1Ev@Base 2.0.21
 _ZThn16_N22QDragReactiveTabWidgetD0Ev@Base 2.0.21
 _ZThn16_N22QDragReactiveTabWidgetD1Ev@Base 2.0.21
 _ZThn16_N22QScrollDownTextBrowserD0Ev@Base 2.0.21
 _ZThn16_N22QScrollDownTextBrowserD1Ev@Base 2.0.21
 _ZThn16_N9QEntitledD0Ev@Base 2.0.21
 _ZThn16_N9QEntitledD1Ev@Base 2.0.21
 _ZlsR10DataStreamRK14VersionControl@Base 2.0.21
 _ZlsR10DataStreamRK5Flags@Base 2.0.21
 _ZlsR10DataStreamRK6QColor@Base 2.0.21
 _ZlsR10DataStreamRK7QString@Base 2.0.21
 _ZrsR10DataStreamR14VersionControl@Base 2.0.21
 _ZrsR10DataStreamR5Flags@Base 2.0.21
 _ZrsR10DataStreamR6QColor@Base 2.0.21
 _ZrsR10DataStreamR7QString@Base 2.0.21
 coro_create@Base 2.0.21
 coro_transfer@Base 2.0.21
