libpo-pokemoninfo.so.1 libpo-pokemoninfo1 #MINVER#
 _Z11readZipFilePKcS0_@Base 2.0.22
 _Z15loadTTeamDialogR4TeamP7QObjectPKc@Base 2.0.22
 _Z15saveTTeamDialogRK4TeamP7QObjectPKc@Base 2.0.22
 _Z6qDebugv@Base 2.0.22
 _ZN10BattleMove4loadEN7Pokemon3genE@Base 2.0.22
 _ZN10BattleMoveC1Ev@Base 2.0.22
 _ZN10BattleMoveC2Ev@Base 2.0.22
 _ZN10DataStreamD0Ev@Base 2.0.22
 _ZN10DataStreamD1Ev@Base 2.0.22
 _ZN10DataStreamD2Ev@Base 2.0.22
 _ZN10GenderInfo11m_DirectoryE@Base 2.0.22
 _ZN10GenderInfo11retranslateEv@Base 2.0.22
 _ZN10GenderInfo15NumberOfGendersEv@Base 2.0.22
 _ZN10GenderInfo4NameEi@Base 2.0.22
 _ZN10GenderInfo4initERK7QString@Base 2.0.22
 _ZN10GenderInfo4pathERK7QString@Base 2.0.22
 _ZN10GenderInfo7DefaultEi@Base 2.0.22
 _ZN10GenderInfo7m_NamesE@Base 2.0.22
 _ZN10GenderInfo8PossibleEii@Base 2.0.22
 _ZN10GenderInfo9loadNamesEv@Base 2.0.22
 _ZN10NatureInfo11ConvertStatEi@Base 2.0.22
 _ZN10NatureInfo11StatBoostedEi@Base 2.0.22
 _ZN10NatureInfo11m_DirectoryE@Base 2.0.22
 _ZN10NatureInfo11retranslateEv@Base 2.0.22
 _ZN10NatureInfo12StatHinderedEi@Base 2.0.22
 _ZN10NatureInfo13ConvertToStatEi@Base 2.0.22
 _ZN10NatureInfo15NumberOfNaturesEv@Base 2.0.22
 _ZN10NatureInfo4NameEi@Base 2.0.22
 _ZN10NatureInfo4initERK7QString@Base 2.0.22
 _ZN10NatureInfo4pathERK7QString@Base 2.0.22
 _ZN10NatureInfo5BoostEii@Base 2.0.22
 _ZN10NatureInfo6NumberERK7QString@Base 2.0.22
 _ZN10NatureInfo7m_NamesE@Base 2.0.22
 _ZN10NatureInfo8NatureOfEii@Base 2.0.22
 _ZN10NatureInfo9loadNamesEv@Base 2.0.22
 _ZN10PokeBattle11updateStatsEN7Pokemon3genE@Base 2.0.22
 _ZN10PokeBattle13setNormalStatEit@Base 2.0.22
 _ZN10PokeBattle14setLifePercentEh@Base 2.0.22
 _ZN10PokeBattle4initER12PokePersonal@Base 2.0.22
 _ZN10PokeBattle4moveEi@Base 2.0.22
 _ZN10PokeBattle7setLifeEi@Base 2.0.22
 _ZN10PokeBattleC1Ev@Base 2.0.22
 _ZN10PokeBattleC2Ev@Base 2.0.22
 _ZN10PokeBattleD0Ev@Base 2.0.22
 _ZN10PokeBattleD1Ev@Base 2.0.22
 _ZN10PokeBattleD2Ev@Base 2.0.22
 _ZN10QByteArrayD1Ev@Base 2.0.22
 _ZN10QByteArrayD2Ev@Base 2.0.22
 _ZN10ServerInfoC1Ev@Base 2.0.22
 _ZN10ServerInfoC2Ev@Base 2.0.22
 _ZN10TeamBattle12resetIndexesEv@Base 2.0.22
 _ZN10TeamBattle13switchPokemonEii@Base 2.0.22
 _ZN10TeamBattle14generateRandomEN7Pokemon3genE@Base 2.0.22
 _ZN10TeamBattle4pokeEi@Base 2.0.22
 _ZN10TeamBattleC1ER12PersonalTeam@Base 2.0.22
 _ZN10TeamBattleC1Ev@Base 2.0.22
 _ZN10TeamBattleC2ER12PersonalTeam@Base 2.0.22
 _ZN10TeamBattleC2Ev@Base 2.0.22
 _ZN11AbilityInfo10EffectDescEi@Base 2.0.22
 _ZN11AbilityInfo10m_MessagesE@Base 2.0.22
 _ZN11AbilityInfo11loadEffectsEv@Base 2.0.22
 _ZN11AbilityInfo11m_DirectoryE@Base 2.0.22
 _ZN11AbilityInfo11retranslateEv@Base 2.0.22
 _ZN11AbilityInfo12loadMessagesEv@Base 2.0.22
 _ZN11AbilityInfo12m_BattleDescE@Base 2.0.22
 _ZN11AbilityInfo14m_OldAbilitiesE@Base 2.0.22
 _ZN11AbilityInfo17NumberOfAbilitiesEN7Pokemon3genE@Base 2.0.22
 _ZN11AbilityInfo21ConvertFromOldAbilityEi@Base 2.0.22
 _ZN11AbilityInfo4DescEi@Base 2.0.22
 _ZN11AbilityInfo4NameEi@Base 2.0.22
 _ZN11AbilityInfo4initERK7QString@Base 2.0.22
 _ZN11AbilityInfo4pathERK7QString@Base 2.0.22
 _ZN11AbilityInfo6ExistsEiN7Pokemon3genE@Base 2.0.22
 _ZN11AbilityInfo6NumberERK7QString@Base 2.0.22
 _ZN11AbilityInfo6m_DescE@Base 2.0.22
 _ZN11AbilityInfo7EffectsEiN7Pokemon3genE@Base 2.0.22
 _ZN11AbilityInfo7MessageEii@Base 2.0.22
 _ZN11AbilityInfo7m_NamesE@Base 2.0.22
 _ZN11AbilityInfo9loadNamesEv@Base 2.0.22
 _ZN11AbilityInfo9m_EffectsE@Base 2.0.22
 _ZN11PokeGeneral13loadAbilitiesEv@Base 2.0.22
 _ZN11PokeGeneral15loadGenderAvailEv@Base 2.0.22
 _ZN11PokeGeneral4loadEv@Base 2.0.22
 _ZN11PokeGeneral9loadMovesEv@Base 2.0.22
 _ZN11PokeGeneral9loadTypesEv@Base 2.0.22
 _ZN11PokeGeneralC1Ev@Base 2.0.22
 _ZN11PokeGeneralC2Ev@Base 2.0.22
 _ZN11PokeGeneralD0Ev@Base 2.0.22
 _ZN11PokeGeneralD1Ev@Base 2.0.22
 _ZN11PokeGeneralD2Ev@Base 2.0.22
 _ZN11PokemonInfo10BaseGenderERKN7Pokemon8uniqueIdE@Base 2.0.22
 _ZN11PokemonInfo10DirectEvosEi@Base 2.0.22
 _ZN11PokemonInfo10GenderRateERKN7Pokemon8uniqueIdE@Base 2.0.22
 _ZN11PokemonInfo10LevelMovesERKN7Pokemon8uniqueIdENS0_3genE@Base 2.0.22
 _ZN11PokemonInfo10TutorMovesERKN7Pokemon8uniqueIdENS0_3genE@Base 2.0.22
 _ZN11PokemonInfo10m_MaxFormeE@Base 2.0.22
 _ZN11PokemonInfo11BoostedStatEii@Base 2.0.22
 _ZN11PokemonInfo11IsAestheticEN7Pokemon8uniqueIdE@Base 2.0.22
 _ZN11PokemonInfo11MinEggLevelERKN7Pokemon8uniqueIdENS0_3genE@Base 2.0.22
 _ZN11PokemonInfo11OriginalEvoERKN7Pokemon8uniqueIdE@Base 2.0.22
 _ZN11PokemonInfo11PreEvoMovesERKN7Pokemon8uniqueIdENS0_3genE@Base 2.0.22
 _ZN11PokemonInfo11SpecialStatERKN7Pokemon8uniqueIdE@Base 2.0.22
 _ZN11PokemonInfo11loadHeightsEv@Base 2.0.22
 _ZN11PokemonInfo11m_AbilitiesE@Base 2.0.22
 _ZN11PokemonInfo11m_BaseStatsE@Base 2.0.22
 _ZN11PokemonInfo11m_DirectoryE@Base 2.0.22
 _ZN11PokemonInfo11retranslateEv@Base 2.0.22
 _ZN11PokemonInfo12AFormesShownERKN7Pokemon8uniqueIdE@Base 2.0.22
 _ZN11PokemonInfo12HasMoveInGenERKN7Pokemon8uniqueIdEiNS0_3genE@Base 2.0.22
 _ZN11PokemonInfo12IsInEvoChainERKN7Pokemon8uniqueIdE@Base 2.0.22
 _ZN11PokemonInfo12LevelBalanceERKN7Pokemon8uniqueIdE@Base 2.0.22
 _ZN11PokemonInfo12RegularMovesERKN7Pokemon8uniqueIdENS0_3genE@Base 2.0.22
 _ZN11PokemonInfo12SpecialMovesERKN7Pokemon8uniqueIdENS0_3genE@Base 2.0.22
 _ZN11PokemonInfo12m_DirectEvosE@Base 2.0.22
 _ZN11PokemonInfo12m_EvolutionsE@Base 2.0.22
 _ZN11PokemonInfo13HasEvolutionsEi@Base 2.0.22
 _ZN11PokemonInfo13OriginalFormeERKN7Pokemon8uniqueIdE@Base 2.0.22
 _ZN11PokemonInfo13VisibleFormesERKN7Pokemon8uniqueIdENS0_3genE@Base 2.0.22
 _ZN11PokemonInfo13loadBaseStatsEv@Base 2.0.22
 _ZN11PokemonInfo13m_GenderRatesE@Base 2.0.22
 _ZN11PokemonInfo14AnimatedSpriteERKN7Pokemon8uniqueIdEibb@Base 2.0.22
 _ZN11PokemonInfo14ClassificationERKN7Pokemon8uniqueIdE@Base 2.0.22
 _ZN11PokemonInfo14m_LevelBalanceE@Base 2.0.22
 _ZN11PokemonInfo14m_OriginalEvosE@Base 2.0.22
 _ZN11PokemonInfo14m_SpecialStatsE@Base 2.0.22
 _ZN11PokemonInfo15NumberOfAFormesERKN7Pokemon8uniqueIdE@Base 2.0.22
 _ZN11PokemonInfo15dreamWorldMovesERKN7Pokemon8uniqueIdENS0_3genE@Base 2.0.22
 _ZN11PokemonInfo15loadGenderRatesEv@Base 2.0.22
 _ZN11PokemonInfo16AbsoluteMinLevelERKN7Pokemon8uniqueIdENS0_3genE@Base 2.0.22
 _ZN11PokemonInfo16NumberOfPokemonsEv@Base 2.0.22
 _ZN11PokemonInfo16getRandomPokemonEN7Pokemon3genE@Base 2.0.22
 _ZN11PokemonInfo16loadDescriptionsEv@Base 2.0.22
 _ZN11PokemonInfo16m_ClassificationE@Base 2.0.22
 _ZN11PokemonInfo17NonAestheticFormeEN7Pokemon8uniqueIdE@Base 2.0.22
 _ZN11PokemonInfo17m_AestheticFormesE@Base 2.0.22
 _ZN11PokemonInfo18HasAnimatedSpritesEv@Base 2.0.22
 _ZN11PokemonInfo18makeDataConsistentEv@Base 2.0.22
 _ZN11PokemonInfo19RunMovesSanityCheckEi@Base 2.0.22
 _ZN11PokemonInfo19loadClassificationsEv@Base 2.0.22
 _ZN11PokemonInfo19m_trueNumberOfPokesE@Base 2.0.22
 _ZN11PokemonInfo25HasAnimatedSpritesEnabledEv@Base 2.0.22
 _ZN11PokemonInfo3CryERKN7Pokemon8uniqueIdEb@Base 2.0.22
 _ZN11PokemonInfo3Gen10isReleasedERKN7Pokemon8uniqueIdE@Base 2.0.22
 _ZN11PokemonInfo3Gen12loadReleasedEPS0_@Base 2.0.22
 _ZN11PokemonInfo3Gen13loadMinLevelsEPS0_@Base 2.0.22
 _ZN11PokemonInfo3Gen4loadERK7QStringRKN7Pokemon3genEPS0_@Base 2.0.22
 _ZN11PokemonInfo3Gen4pathERK7QString@Base 2.0.22
 _ZN11PokemonInfo3Gen9loadMovesEPS0_@Base 2.0.22
 _ZN11PokemonInfo3GenD1Ev@Base 2.0.22
 _ZN11PokemonInfo3GenD2Ev@Base 2.0.22
 _ZN11PokemonInfo3SubEN7Pokemon3genEb@Base 2.0.22
 _ZN11PokemonInfo3genEN7Pokemon3genE@Base 2.0.22
 _ZN11PokemonInfo4DescERKN7Pokemon8uniqueIdEi@Base 2.0.22
 _ZN11PokemonInfo4EvosEi@Base 2.0.22
 _ZN11PokemonInfo4IconERKN7Pokemon8uniqueIdEb@Base 2.0.22
 _ZN11PokemonInfo4NameERKN7Pokemon8uniqueIdE@Base 2.0.22
 _ZN11PokemonInfo4StatERKN7Pokemon8uniqueIdENS0_3genEiihh@Base 2.0.22
 _ZN11PokemonInfo4gensE@Base 2.0.22
 _ZN11PokemonInfo4initERK7QString@Base 2.0.22
 _ZN11PokemonInfo4pathERK7QStringRKN7Pokemon3genE@Base 2.0.22
 _ZN11PokemonInfo5MovesERKN7Pokemon8uniqueIdENS0_3genE@Base 2.0.22
 _ZN11PokemonInfo5Type1ERKN7Pokemon8uniqueIdENS0_3genE@Base 2.0.22
 _ZN11PokemonInfo5Type2ERKN7Pokemon8uniqueIdENS0_3genE@Base 2.0.22
 _ZN11PokemonInfo6AllIdsEv@Base 2.0.22
 _ZN11PokemonInfo6ExistsERKN7Pokemon8uniqueIdE@Base 2.0.22
 _ZN11PokemonInfo6ExistsERKN7Pokemon8uniqueIdENS0_3genE@Base 2.0.22
 _ZN11PokemonInfo6FormesERKN7Pokemon8uniqueIdENS0_3genE@Base 2.0.22
 _ZN11PokemonInfo6GenderERKN7Pokemon8uniqueIdE@Base 2.0.22
 _ZN11PokemonInfo6HeightERKN7Pokemon8uniqueIdE@Base 2.0.22
 _ZN11PokemonInfo6NumberERK7QString@Base 2.0.22
 _ZN11PokemonInfo6PreEvoEi@Base 2.0.22
 _ZN11PokemonInfo6WeightERKN7Pokemon8uniqueIdE@Base 2.0.22
 _ZN11PokemonInfo6m_DescE@Base 2.0.22
 _ZN11PokemonInfo7AbilityERKN7Pokemon8uniqueIdEiNS0_3genE@Base 2.0.22
 _ZN11PokemonInfo7IsFormeERKN7Pokemon8uniqueIdE@Base 2.0.22
 _ZN11PokemonInfo7PictureERK7QString@Base 2.0.22
 _ZN11PokemonInfo7PictureERKN7Pokemon8uniqueIdENS0_3genEibbb@Base 2.0.22
 _ZN11PokemonInfo7TMMovesERKN7Pokemon8uniqueIdENS0_3genE@Base 2.0.22
 _ZN11PokemonInfo7WeightSERKN7Pokemon8uniqueIdE@Base 2.0.22
 _ZN11PokemonInfo7loadGenEN7Pokemon3genE@Base 2.0.22
 _ZN11PokemonInfo7m_NamesE@Base 2.0.22
 _ZN11PokemonInfo7m_Type1E@Base 2.0.22
 _ZN11PokemonInfo7m_Type2E@Base 2.0.22
 _ZN11PokemonInfo8EggMovesERKN7Pokemon8uniqueIdENS0_3genE@Base 2.0.22
 _ZN11PokemonInfo8FullStatERKN7Pokemon8uniqueIdENS0_3genEiiihh@Base 2.0.22
 _ZN11PokemonInfo8MinLevelERKN7Pokemon8uniqueIdENS0_3genE@Base 2.0.22
 _ZN11PokemonInfo8ReleasedERKN7Pokemon8uniqueIdENS0_3genE@Base 2.0.22
 _ZN11PokemonInfo8loadEvosEv@Base 2.0.22
 _ZN11PokemonInfo8m_HeightE@Base 2.0.22
 _ZN11PokemonInfo9AbilitiesERKN7Pokemon8uniqueIdENS0_3genE@Base 2.0.22
 _ZN11PokemonInfo9BaseStatsERKN7Pokemon8uniqueIdE@Base 2.0.22
 _ZN11PokemonInfo9HasFormesERKN7Pokemon8uniqueIdE@Base 2.0.22
 _ZN11PokemonInfo9HasPreEvoEi@Base 2.0.22
 _ZN11PokemonInfo9TrueCountEv@Base 2.0.22
 _ZN11PokemonInfo9calc_statEihihh@Base 2.0.22
 _ZN11PokemonInfo9loadNamesEv@Base 2.0.22
 _ZN11PokemonInfo9m_GendersE@Base 2.0.22
 _ZN11PokemonInfo9m_OptionsE@Base 2.0.22
 _ZN11PokemonInfo9m_PreEvosE@Base 2.0.22
 _ZN11PokemonInfo9m_WeightsE@Base 2.0.22
 _ZN11QStringListD1Ev@Base 2.0.22
 _ZN11QStringListD2Ev@Base 2.0.22
 _ZN11TrainerInfo8sanitizeEv@Base 2.0.22
 _ZN11TrainerInfoC1Ev@Base 2.0.22
 _ZN11TrainerInfoC2Ev@Base 2.0.22
 _ZN12CategoryInfo11m_DirectoryE@Base 2.0.22
 _ZN12CategoryInfo11retranslateEv@Base 2.0.22
 _ZN12CategoryInfo18NumberOfCategoriesEv@Base 2.0.22
 _ZN12CategoryInfo4NameEi@Base 2.0.22
 _ZN12CategoryInfo4initERK7QString@Base 2.0.22
 _ZN12CategoryInfo4pathERK7QString@Base 2.0.22
 _ZN12CategoryInfo7m_NamesE@Base 2.0.22
 _ZN12CategoryInfo9loadNamesEv@Base 2.0.22
 _ZN12PersonalTeamC1Ev@Base 2.0.22
 _ZN12PersonalTeamC2Ev@Base 2.0.22
 _ZN12PersonalTeamD1Ev@Base 2.0.22
 _ZN12PersonalTeamD2Ev@Base 2.0.22
 _ZN12PokeGraphics11setUpToDateEb@Base 2.0.22
 _ZN12PokeGraphics4iconERKN7Pokemon8uniqueIdE@Base 2.0.22
 _ZN12PokeGraphics4iconEv@Base 2.0.22
 _ZN12PokeGraphics4loadEib@Base 2.0.22
 _ZN12PokeGraphics6setGenEN7Pokemon3genE@Base 2.0.22
 _ZN12PokeGraphics6setNumEN7Pokemon8uniqueIdE@Base 2.0.22
 _ZN12PokeGraphics7pictureEib@Base 2.0.22
 _ZN12PokeGraphics7pictureEv@Base 2.0.22
 _ZN12PokeGraphics8loadIconERKN7Pokemon8uniqueIdE@Base 2.0.22
 _ZN12PokeGraphicsC1Ev@Base 2.0.22
 _ZN12PokeGraphicsC2Ev@Base 2.0.22
 _ZN12PokePersonal10controlEVsEi@Base 2.0.22
 _ZN12PokePersonal10removeMoveEi@Base 2.0.22
 _ZN12PokePersonal11controlHPDVEv@Base 2.0.22
 _ZN12PokePersonal13controlGenderEv@Base 2.0.22
 _ZN12PokePersonal16controlShininessEv@Base 2.0.22
 _ZN12PokePersonal5resetEv@Base 2.0.22
 _ZN12PokePersonal5setDVEih@Base 2.0.22
 _ZN12PokePersonal5setEVEih@Base 2.0.22
 _ZN12PokePersonal7addMoveEib@Base 2.0.22
 _ZN12PokePersonal7hasMoveEi@Base 2.0.22
 _ZN12PokePersonal7setMoveEiib@Base 2.0.22
 _ZN12PokePersonal8runCheckEv@Base 2.0.22
 _ZN12PokePersonalC1Ev@Base 2.0.22
 _ZN12PokePersonalC2Ev@Base 2.0.22
 _ZN12PokemonMovesC1ERKS_@Base 2.0.22
 _ZN12PokemonMovesC1Ev@Base 2.0.22
 _ZN12PokemonMovesC2ERKS_@Base 2.0.22
 _ZN12PokemonMovesC2Ev@Base 2.0.22
 _ZN12PokemonMovesD1Ev@Base 2.0.22
 _ZN12PokemonMovesD2Ev@Base 2.0.22
 _ZN13BattleChoices10SwitchOnlyEh@Base 2.0.22
 _ZN13BattleChoices13disableAttackEi@Base 2.0.22
 _ZN13BattleChoices13disableSwitchEv@Base 2.0.22
 _ZN13BattleChoices14disableAttacksEv@Base 2.0.22
 _ZN13BattleChoicesC1Ev@Base 2.0.22
 _ZN13BattleChoicesC2Ev@Base 2.0.22
 _ZN13ChallengeInfo10clauseTextE@Base 2.0.22
 _ZN13ChallengeInfo16clauseBattleTextE@Base 2.0.22
 _ZN13ChallengeInfo17clauseDescriptionE@Base 2.0.22
 _ZN13ChallengeInfo8modeTextE@Base 2.0.22
 _ZN13PokeBaseStats11setBaseStatEih@Base 2.0.22
 _ZN13PokeBaseStats12setBaseSpeedEh@Base 2.0.22
 _ZN13PokeBaseStats13setBaseAttackEh@Base 2.0.22
 _ZN13PokeBaseStats14setBaseDefenseEh@Base 2.0.22
 _ZN13PokeBaseStats15setBaseSpAttackEh@Base 2.0.22
 _ZN13PokeBaseStats16setBaseSpDefenseEh@Base 2.0.22
 _ZN13PokeBaseStats9setBaseHpEh@Base 2.0.22
 _ZN13PokeBaseStatsC1Ehhhhhh@Base 2.0.22
 _ZN13PokeBaseStatsC2Ehhhhhh@Base 2.0.22
 _ZN14ChangeTeamInfoC1Ev@Base 2.0.22
 _ZN14ChangeTeamInfoC2Ev@Base 2.0.22
 _ZN14MoveSetChecker11loadGenDataERKN7Pokemon3genE@Base 2.0.22
 _ZN14MoveSetChecker15combinationsForEN7Pokemon8uniqueIdENS0_3genE@Base 2.0.22
 _ZN14MoveSetChecker16enforceMinLevelsE@Base 2.0.22
 _ZN14MoveSetChecker16loadCombinationsERK7QStringN7Pokemon3genER5QHashIS4_S5_INS3_8uniqueIdE5QListI4QSetIiEEEE@Base 2.0.22
 _ZN14MoveSetChecker17eventCombinationsE@Base 2.0.22
 _ZN14MoveSetChecker17legalCombinationsE@Base 2.0.22
 _ZN14MoveSetChecker19eventCombinationsOfEN7Pokemon3genE@Base 2.0.22
 _ZN14MoveSetChecker20breedingCombinationsE@Base 2.0.22
 _ZN14MoveSetChecker22breedingCombinationsOfEN7Pokemon3genE@Base 2.0.22
 _ZN14MoveSetChecker22isAnEggMoveCombinationERKN7Pokemon8uniqueIdENS0_3genE4QSetIiE@Base 2.0.22
 _ZN14MoveSetChecker3dirE@Base 2.0.22
 _ZN14MoveSetChecker4initERK7QStringb@Base 2.0.22
 _ZN14MoveSetChecker4pathERK7QStringRKN7Pokemon3genE@Base 2.0.22
 _ZN14MoveSetChecker7isValidERKN7Pokemon8uniqueIdENS0_3genERK4QSetIiEiiibPS6_P7QString@Base 2.0.22
 _ZN14MoveSetChecker7isValidERKN7Pokemon8uniqueIdENS0_3genEiiiiiiibP4QSetIiEP7QString@Base 2.0.22
 _ZN14VersionControlD1Ev@Base 2.0.22
 _ZN14VersionControlD2Ev@Base 2.0.22
 _ZN15HiddenPowerInfo11m_DirectoryE@Base 2.0.22
 _ZN15HiddenPowerInfo16AttDefDVsForGen2Ei@Base 2.0.22
 _ZN15HiddenPowerInfo20PossibilitiesForTypeEi@Base 2.0.22
 _ZN15HiddenPowerInfo4TypeEN7Pokemon3genEhhhhhh@Base 2.0.22
 _ZN15HiddenPowerInfo4initERK7QString@Base 2.0.22
 _ZN15HiddenPowerInfo4pathERK7QString@Base 2.0.22
 _ZN15HiddenPowerInfo5PowerEN7Pokemon3genEhhhhhh@Base 2.0.22
 _ZN15ProtocolVersionC1Eii@Base 2.0.22
 _ZN15ProtocolVersionC2Eii@Base 2.0.22
 _ZN16ShallowShownPoke4initERK10PokeBattle@Base 2.0.22
 _ZN16ShallowShownPokeC1Ev@Base 2.0.22
 _ZN16ShallowShownPokeC2Ev@Base 2.0.22
 _ZN16ShallowShownTeamC1ERK10TeamBattle@Base 2.0.22
 _ZN16ShallowShownTeamC2ERK10TeamBattle@Base 2.0.22
 _ZN17FindBattleDataAdv7shuffleEi@Base 2.0.22
 _ZN17PokemonInfoConfig10currentModEv@Base 2.0.22
 _ZN17PokemonInfoConfig11getFillModeEv@Base 2.0.22
 _ZN17PokemonInfoConfig11setFillModeEN8FillMode12FillModeTypeE@Base 2.0.22
 _ZN17PokemonInfoConfig13availableModsEv@Base 2.0.22
 _ZN17PokemonInfoConfig14currentModPathEv@Base 2.0.22
 _ZN17PokemonInfoConfig17changeTranslationERK7QString@Base 2.0.22
 _ZN17PokemonInfoConfig20setLastSubgenToWholeEb@Base 2.0.22
 _ZN17PokemonInfoConfig8allFilesERK7QStringb@Base 2.0.22
 _ZN17PokemonInfoConfig8fillModeE@Base 2.0.22
 _ZN17PokemonInfoConfig9changeModERK7QString@Base 2.0.22
 _ZN17QForeachContainerI5QListIN8ItemInfo6EffectEEEC1ERKS3_@Base 2.0.22
 _ZN17QForeachContainerI5QListIN8ItemInfo6EffectEEEC2ERKS3_@Base 2.0.22
 _ZN17ShallowBattlePoke12changeStatusEi@Base 2.0.22
 _ZN17ShallowBattlePoke12removeStatusEi@Base 2.0.22
 _ZN17ShallowBattlePoke14setLifePercentEh@Base 2.0.22
 _ZN17ShallowBattlePoke4initERK10PokeBattle@Base 2.0.22
 _ZN17ShallowBattlePoke7setLifeEi@Base 2.0.22
 _ZN17ShallowBattlePoke9addStatusEi@Base 2.0.22
 _ZN17ShallowBattlePokeC1ERK10PokeBattle@Base 2.0.22
 _ZN17ShallowBattlePokeC1Ev@Base 2.0.22
 _ZN17ShallowBattlePokeC2ERK10PokeBattle@Base 2.0.22
 _ZN17ShallowBattlePokeC2Ev@Base 2.0.22
 _ZN17ShallowBattlePokeD0Ev@Base 2.0.22
 _ZN17ShallowBattlePokeD1Ev@Base 2.0.22
 _ZN17ShallowBattlePokeD2Ev@Base 2.0.22
 _ZN18QAlgorithmsPrivate11qSortHelperIN5QListI7QStringE8iteratorES2_5qLessIS2_EEEvT_S7_RKT0_T1_@Base 2.0.22
 _ZN19BattleConfigurationC1ERKS_@Base 2.0.22
 _ZN19BattleConfigurationC2ERKS_@Base 2.0.22
 _ZN19BattleConfigurationD1Ev@Base 2.0.22
 _ZN19BattleConfigurationD2Ev@Base 2.0.22
 _ZN19BattleConfigurationaSERKS_@Base 2.0.22
 _ZN4QMapIN7Pokemon8uniqueIdE7QStringE13detach_helperEv@Base 2.0.22
 _ZN4QMapIN7Pokemon8uniqueIdE7QStringED1Ev@Base 2.0.22
 _ZN4QMapIN7Pokemon8uniqueIdE7QStringED2Ev@Base 2.0.22
 _ZN4QSetIN7Pokemon8uniqueIdEED1Ev@Base 2.0.22
 _ZN4QSetIN7Pokemon8uniqueIdEED2Ev@Base 2.0.22
 _ZN4QSetIiE5uniteERKS0_@Base 2.0.22
 _ZN4QSetIiE6insertERKi@Base 2.0.22
 _ZN4QSetIiE8subtractERKS0_@Base 2.0.22
 _ZN4QSetIiED1Ev@Base 2.0.22
 _ZN4QSetIiED2Ev@Base 2.0.22
 _ZN4Team11sanityCheckEv@Base 2.0.22
 _ZN4Team12loadFromFileERK7QString@Base 2.0.22
 _ZN4Team13importFromTxtERK7QString@Base 2.0.22
 _ZN4Team6setGenEN7Pokemon3genE@Base 2.0.22
 _ZN4Team7setNameERK7QString@Base 2.0.22
 _ZN4Team9setFolderERK7QString@Base 2.0.22
 _ZN4TeamC1Ev@Base 2.0.22
 _ZN4TeamC2Ev@Base 2.0.22
 _ZN5QHashI7QStringiE10createNodeEjRKS0_RKiPP9QHashNodeIS0_iE@Base 2.0.22
 _ZN5QHashI7QStringiE11deleteNode2EPN9QHashData4NodeE@Base 2.0.22
 _ZN5QHashI7QStringiE13duplicateNodeEPN9QHashData4NodeEPv@Base 2.0.22
 _ZN5QHashI7QStringiED1Ev@Base 2.0.22
 _ZN5QHashI7QStringiED2Ev@Base 2.0.22
 _ZN5QHashI7QStringiEixERKS0_@Base 2.0.22
 _ZN5QHashI7QStringtE11deleteNode2EPN9QHashData4NodeE@Base 2.0.22
 _ZN5QHashI7QStringtE13duplicateNodeEPN9QHashData4NodeEPv@Base 2.0.22
 _ZN5QHashIN7Pokemon3genE7QStringE11deleteNode2EPN9QHashData4NodeE@Base 2.0.22
 _ZN5QHashIN7Pokemon3genE7QStringE13duplicateNodeEPN9QHashData4NodeEPv@Base 2.0.22
 _ZN5QHashIN7Pokemon3genE7QStringED1Ev@Base 2.0.22
 _ZN5QHashIN7Pokemon3genE7QStringED2Ev@Base 2.0.22
 _ZN5QHashIN7Pokemon3genEN11PokemonInfo3GenEE11deleteNode2EPN9QHashData4NodeE@Base 2.0.22
 _ZN5QHashIN7Pokemon3genEN11PokemonInfo3GenEE13duplicateNodeEPN9QHashData4NodeEPv@Base 2.0.22
 _ZN5QHashIN7Pokemon3genEN11PokemonInfo3GenEED1Ev@Base 2.0.22
 _ZN5QHashIN7Pokemon3genEN11PokemonInfo3GenEED2Ev@Base 2.0.22
 _ZN5QHashIN7Pokemon3genEN11PokemonInfo3GenEEixERKS1_@Base 2.0.22
 _ZN5QHashIN7Pokemon3genEN8MoveInfo3GenEE11deleteNode2EPN9QHashData4NodeE@Base 2.0.22
 _ZN5QHashIN7Pokemon3genEN8MoveInfo3GenEE13duplicateNodeEPN9QHashData4NodeEPv@Base 2.0.22
 _ZN5QHashIN7Pokemon3genEN8MoveInfo3GenEED1Ev@Base 2.0.22
 _ZN5QHashIN7Pokemon3genEN8MoveInfo3GenEED2Ev@Base 2.0.22
 _ZN5QHashIN7Pokemon3genEN8MoveInfo3GenEEixERKS1_@Base 2.0.22
 _ZN5QHashIN7Pokemon3genES_INS0_8uniqueIdE5QListI4QSetIiEEEE11deleteNode2EPN9QHashData4NodeE@Base 2.0.22
 _ZN5QHashIN7Pokemon3genES_INS0_8uniqueIdE5QListI4QSetIiEEEE13duplicateNodeEPN9QHashData4NodeEPv@Base 2.0.22
 _ZN5QHashIN7Pokemon3genES_INS0_8uniqueIdE5QListI4QSetIiEEEED1Ev@Base 2.0.22
 _ZN5QHashIN7Pokemon3genES_INS0_8uniqueIdE5QListI4QSetIiEEEED2Ev@Base 2.0.22
 _ZN5QHashIN7Pokemon8uniqueIdE12PokemonMovesE11deleteNode2EPN9QHashData4NodeE@Base 2.0.22
 _ZN5QHashIN7Pokemon8uniqueIdE12PokemonMovesE13duplicateNodeEPN9QHashData4NodeEPv@Base 2.0.22
 _ZN5QHashIN7Pokemon8uniqueIdE12PokemonMovesED1Ev@Base 2.0.22
 _ZN5QHashIN7Pokemon8uniqueIdE12PokemonMovesED2Ev@Base 2.0.22
 _ZN5QHashIN7Pokemon8uniqueIdE12PokemonMovesEixERKS1_@Base 2.0.22
 _ZN5QHashIN7Pokemon8uniqueIdE13PokeBaseStatsE11deleteNode2EPN9QHashData4NodeE@Base 2.0.22
 _ZN5QHashIN7Pokemon8uniqueIdE13PokeBaseStatsE13duplicateNodeEPN9QHashData4NodeEPv@Base 2.0.22
 _ZN5QHashIN7Pokemon8uniqueIdE13PokeBaseStatsED1Ev@Base 2.0.22
 _ZN5QHashIN7Pokemon8uniqueIdE13PokeBaseStatsED2Ev@Base 2.0.22
 _ZN5QHashIN7Pokemon8uniqueIdE15QHashDummyValueE11deleteNode2EPN9QHashData4NodeE@Base 2.0.22
 _ZN5QHashIN7Pokemon8uniqueIdE15QHashDummyValueE13duplicateNodeEPN9QHashData4NodeEPv@Base 2.0.22
 _ZN5QHashIN7Pokemon8uniqueIdE15QHashDummyValueE6detachEv@Base 2.0.22
 _ZN5QHashIN7Pokemon8uniqueIdE15QHashDummyValueED1Ev@Base 2.0.22
 _ZN5QHashIN7Pokemon8uniqueIdE15QHashDummyValueED2Ev@Base 2.0.22
 _ZN5QHashIN7Pokemon8uniqueIdE5QListI4QSetIiEEE11deleteNode2EPN9QHashData4NodeE@Base 2.0.22
 _ZN5QHashIN7Pokemon8uniqueIdE5QListI4QSetIiEEE13duplicateNodeEPN9QHashData4NodeEPv@Base 2.0.22
 _ZN5QHashIN7Pokemon8uniqueIdE5QListI4QSetIiEEED1Ev@Base 2.0.22
 _ZN5QHashIN7Pokemon8uniqueIdE5QListI4QSetIiEEED2Ev@Base 2.0.22
 _ZN5QHashIN7Pokemon8uniqueIdE7QStringE11deleteNode2EPN9QHashData4NodeE@Base 2.0.22
 _ZN5QHashIN7Pokemon8uniqueIdE7QStringE13duplicateNodeEPN9QHashData4NodeEPv@Base 2.0.22
 _ZN5QHashIN7Pokemon8uniqueIdE7QStringED1Ev@Base 2.0.22
 _ZN5QHashIN7Pokemon8uniqueIdE7QStringED2Ev@Base 2.0.22
 _ZN5QHashIN7Pokemon8uniqueIdEiE11deleteNode2EPN9QHashData4NodeE@Base 2.0.22
 _ZN5QHashIN7Pokemon8uniqueIdEiE13detach_helperEv@Base 2.0.22
 _ZN5QHashIN7Pokemon8uniqueIdEiE13duplicateNodeEPN9QHashData4NodeEPv@Base 2.0.22
 _ZN5QHashIN7Pokemon8uniqueIdEiED1Ev@Base 2.0.22
 _ZN5QHashIN7Pokemon8uniqueIdEiED2Ev@Base 2.0.22
 _ZN5QHashIN7Pokemon8uniqueIdEiEixERKS1_@Base 2.0.22
 _ZN5QHashIi11QStringListE11deleteNode2EPN9QHashData4NodeE@Base 2.0.22
 _ZN5QHashIi11QStringListE13duplicateNodeEPN9QHashData4NodeEPv@Base 2.0.22
 _ZN5QHashIi11QStringListED1Ev@Base 2.0.22
 _ZN5QHashIi11QStringListED2Ev@Base 2.0.22
 _ZN5QHashIi11QStringListEixERKi@Base 2.0.22
 _ZN5QHashIi15QHashDummyValueE11deleteNode2EPN9QHashData4NodeE@Base 2.0.22
 _ZN5QHashIi15QHashDummyValueE13detach_helperEv@Base 2.0.22
 _ZN5QHashIi15QHashDummyValueE13duplicateNodeEPN9QHashData4NodeEPv@Base 2.0.22
 _ZN5QHashIi15QHashDummyValueE6removeERKi@Base 2.0.22
 _ZN5QHashIi15QHashDummyValueED1Ev@Base 2.0.22
 _ZN5QHashIi15QHashDummyValueED2Ev@Base 2.0.22
 _ZN5QHashIi5QListIN8ItemInfo6EffectEEE11deleteNode2EPN9QHashData4NodeE@Base 2.0.22
 _ZN5QHashIi5QListIN8ItemInfo6EffectEEE13duplicateNodeEPN9QHashData4NodeEPv@Base 2.0.22
 _ZN5QHashIi5QListIN8ItemInfo6EffectEEED1Ev@Base 2.0.22
 _ZN5QHashIi5QListIN8ItemInfo6EffectEEED2Ev@Base 2.0.22
 _ZN5QHashIi5QListIiEE11deleteNode2EPN9QHashData4NodeE@Base 2.0.22
 _ZN5QHashIi5QListIiEE13detach_helperEv@Base 2.0.22
 _ZN5QHashIi5QListIiEE13duplicateNodeEPN9QHashData4NodeEPv@Base 2.0.22
 _ZN5QHashIi5QListIiEE6removeERKi@Base 2.0.22
 _ZN5QHashIi5QListIiEED1Ev@Base 2.0.22
 _ZN5QHashIi5QListIiEED2Ev@Base 2.0.22
 _ZN5QHashIi7QStringE11deleteNode2EPN9QHashData4NodeE@Base 2.0.22
 _ZN5QHashIi7QStringE13duplicateNodeEPN9QHashData4NodeEPv@Base 2.0.22
 _ZN5QHashIi7QStringE6detachEv@Base 2.0.22
 _ZN5QHashIi7QStringED1Ev@Base 2.0.22
 _ZN5QHashIi7QStringED2Ev@Base 2.0.22
 _ZN5QHashIi7QVectorIiEE11deleteNode2EPN9QHashData4NodeE@Base 2.0.22
 _ZN5QHashIi7QVectorIiEE13duplicateNodeEPN9QHashData4NodeEPv@Base 2.0.22
 _ZN5QHashIi7QVectorIiEED1Ev@Base 2.0.22
 _ZN5QHashIi7QVectorIiEED2Ev@Base 2.0.22
 _ZN5QHashIi7QVectorIiEEixERKi@Base 2.0.22
 _ZN5QHashIiN11AbilityInfo6EffectEE11deleteNode2EPN9QHashData4NodeE@Base 2.0.22
 _ZN5QHashIiN11AbilityInfo6EffectEE13duplicateNodeEPN9QHashData4NodeEPv@Base 2.0.22
 _ZN5QHashIiS_Ii7QStringEE11deleteNode2EPN9QHashData4NodeE@Base 2.0.22
 _ZN5QHashIiS_Ii7QStringEE13duplicateNodeEPN9QHashData4NodeEPv@Base 2.0.22
 _ZN5QHashIiS_Ii7QStringEED1Ev@Base 2.0.22
 _ZN5QHashIiS_Ii7QStringEED2Ev@Base 2.0.22
 _ZN5QHashIiaE11deleteNode2EPN9QHashData4NodeE@Base 2.0.22
 _ZN5QHashIiaE13duplicateNodeEPN9QHashData4NodeEPv@Base 2.0.22
 _ZN5QHashIiaED1Ev@Base 2.0.22
 _ZN5QHashIiaED2Ev@Base 2.0.22
 _ZN5QHashIibE11deleteNode2EPN9QHashData4NodeE@Base 2.0.22
 _ZN5QHashIibE13duplicateNodeEPN9QHashData4NodeEPv@Base 2.0.22
 _ZN5QHashIibED1Ev@Base 2.0.22
 _ZN5QHashIibED2Ev@Base 2.0.22
 _ZN5QHashIibEixERKi@Base 2.0.22
 _ZN5QHashIicE11deleteNode2EPN9QHashData4NodeE@Base 2.0.22
 _ZN5QHashIicE13duplicateNodeEPN9QHashData4NodeEPv@Base 2.0.22
 _ZN5QHashIicED1Ev@Base 2.0.22
 _ZN5QHashIicED2Ev@Base 2.0.22
 _ZN5QHashIihE11deleteNode2EPN9QHashData4NodeE@Base 2.0.22
 _ZN5QHashIihE13duplicateNodeEPN9QHashData4NodeEPv@Base 2.0.22
 _ZN5QHashIihED1Ev@Base 2.0.22
 _ZN5QHashIihED2Ev@Base 2.0.22
 _ZN5QHashIiiE11deleteNode2EPN9QHashData4NodeE@Base 2.0.22
 _ZN5QHashIiiE13duplicateNodeEPN9QHashData4NodeEPv@Base 2.0.22
 _ZN5QHashIiiED1Ev@Base 2.0.22
 _ZN5QHashIiiED2Ev@Base 2.0.22
 _ZN5QHashIiiEixERKi@Base 2.0.22
 _ZN5QHashIilE11deleteNode2EPN9QHashData4NodeE@Base 2.0.22
 _ZN5QHashIilE13duplicateNodeEPN9QHashData4NodeEPv@Base 2.0.22
 _ZN5QHashIilED1Ev@Base 2.0.22
 _ZN5QHashIilED2Ev@Base 2.0.22
 _ZN5QHashIitE11deleteNode2EPN9QHashData4NodeE@Base 2.0.22
 _ZN5QHashIitE13duplicateNodeEPN9QHashData4NodeEPv@Base 2.0.22
 _ZN5QHashIitED1Ev@Base 2.0.22
 _ZN5QHashIitED2Ev@Base 2.0.22
 _ZN5QHashIttE11deleteNode2EPN9QHashData4NodeE@Base 2.0.22
 _ZN5QHashIttED1Ev@Base 2.0.22
 _ZN5QHashIttED2Ev@Base 2.0.22
 _ZN5QListI11QStringListE13detach_helperEi@Base 2.0.22
 _ZN5QListI11QStringListE18detach_helper_growEii@Base 2.0.22
 _ZN5QListI11QStringListE6appendERKS0_@Base 2.0.22
 _ZN5QListI11QStringListE9node_copyEPNS1_4NodeES3_S3_@Base 2.0.22
 _ZN5QListI11QStringListED1Ev@Base 2.0.22
 _ZN5QListI11QStringListED2Ev@Base 2.0.22
 _ZN5QListI12PersonalTeamE18detach_helper_growEii@Base 2.0.22
 _ZN5QListI12PersonalTeamE6appendERKS0_@Base 2.0.22
 _ZN5QListI4QSetIiEE13detach_helperEi@Base 2.0.22
 _ZN5QListI4QSetIiEE18detach_helper_growEii@Base 2.0.22
 _ZN5QListI4QSetIiEE6appendERKS1_@Base 2.0.22
 _ZN5QListI4QSetIiEED1Ev@Base 2.0.22
 _ZN5QListI4QSetIiEED2Ev@Base 2.0.22
 _ZN5QListI7QStringE13detach_helperEi@Base 2.0.22
 _ZN5QListI7QStringE18detach_helper_growEii@Base 2.0.22
 _ZN5QListI7QStringE6appendERKS0_@Base 2.0.22
 _ZN5QListI7QStringED1Ev@Base 2.0.22
 _ZN5QListI7QStringED2Ev@Base 2.0.22
 _ZN5QListI7QStringEpLERKS1_@Base 2.0.22
 _ZN5QListIN7Pokemon3genEE13detach_helperEi@Base 2.0.22
 _ZN5QListIN7Pokemon3genEE18detach_helper_growEii@Base 2.0.22
 _ZN5QListIN7Pokemon3genEE6appendERKS1_@Base 2.0.22
 _ZN5QListIN7Pokemon3genEED1Ev@Base 2.0.22
 _ZN5QListIN7Pokemon3genEED2Ev@Base 2.0.22
 _ZN5QListIN7Pokemon8uniqueIdEE13detach_helperEi@Base 2.0.22
 _ZN5QListIN7Pokemon8uniqueIdEE18detach_helper_growEii@Base 2.0.22
 _ZN5QListIN7Pokemon8uniqueIdEE6appendERKS1_@Base 2.0.22
 _ZN5QListIN7Pokemon8uniqueIdEE7reserveEi@Base 2.0.22
 _ZN5QListIN7Pokemon8uniqueIdEE9node_copyEPNS2_4NodeES4_S4_@Base 2.0.22
 _ZN5QListIN7Pokemon8uniqueIdEED1Ev@Base 2.0.22
 _ZN5QListIN7Pokemon8uniqueIdEED2Ev@Base 2.0.22
 _ZN5QListIN8ItemInfo6EffectEE13detach_helperEi@Base 2.0.22
 _ZN5QListIN8ItemInfo6EffectEE18detach_helper_growEii@Base 2.0.22
 _ZN5QListIN8ItemInfo6EffectEE6appendERKS1_@Base 2.0.22
 _ZN5QListIN8ItemInfo6EffectEE9node_copyEPNS2_4NodeES4_S4_@Base 2.0.22
 _ZN5QListIN8ItemInfo6EffectEED1Ev@Base 2.0.22
 _ZN5QListIN8ItemInfo6EffectEED2Ev@Base 2.0.22
 _ZN5QListIN8ItemInfo6EffectEEpLERKS2_@Base 2.0.22
 _ZN5QListIiE13detach_helperEi@Base 2.0.22
 _ZN5QListIiE18detach_helper_growEii@Base 2.0.22
 _ZN5QListIiE5clearEv@Base 2.0.22
 _ZN5QListIiE6appendERKi@Base 2.0.22
 _ZN5QListIiED1Ev@Base 2.0.22
 _ZN5QListIiED2Ev@Base 2.0.22
 _ZN6BattleC1Eii@Base 2.0.22
 _ZN6BattleC2Eii@Base 2.0.22
 _ZN6QDebugD1Ev@Base 2.0.22
 _ZN6QDebugD2Ev@Base 2.0.22
 _ZN6QDebuglsEPKc@Base 2.0.22
 _ZN7GenInfo10AllSubGensEv@Base 2.0.22
 _ZN7GenInfo10m_versionsE@Base 2.0.22
 _ZN7GenInfo11m_DirectoryE@Base 2.0.22
 _ZN7GenInfo11retranslateEv@Base 2.0.22
 _ZN7GenInfo12NumberOfGensEv@Base 2.0.22
 _ZN7GenInfo15NumberOfSubgensEi@Base 2.0.22
 _ZN7GenInfo17m_NumberOfSubgensE@Base 2.0.22
 _ZN7GenInfo3GenEi@Base 2.0.22
 _ZN7GenInfo4initERK7QString@Base 2.0.22
 _ZN7GenInfo4pathERK7QString@Base 2.0.22
 _ZN7GenInfo6genMaxE@Base 2.0.22
 _ZN7GenInfo6genMinE@Base 2.0.22
 _ZN7GenInfo6m_gensE@Base 2.0.22
 _ZN7GenInfo7AllGensEv@Base 2.0.22
 _ZN7GenInfo7VersionERKN7Pokemon3genE@Base 2.0.22
 _ZN7Pokemon3gen13extract_shortERK7QStringRhRS1_@Base 2.0.22
 _ZN7Pokemon3gen7extractERK7QStringRS0_RS1_@Base 2.0.22
 _ZN7Pokemon8uniqueId13extract_shortERK7QStringRtRS1_@Base 2.0.22
 _ZN7Pokemon8uniqueId7extractERK7QStringRS0_RS1_PS1_@Base 2.0.22
 _ZN7QObject2trEPKcS1_@Base 2.0.22
 _ZN7QStringD1Ev@Base 2.0.22
 _ZN7QStringD2Ev@Base 2.0.22
 _ZN7QVectorI4QSetIiEE13detach_helperEv@Base 2.0.22
 _ZN7QVectorI4QSetIiEE6resizeEi@Base 2.0.22
 _ZN7QVectorI4QSetIiEE7reallocEii@Base 2.0.22
 _ZN7QVectorI4QSetIiEED1Ev@Base 2.0.22
 _ZN7QVectorI4QSetIiEED2Ev@Base 2.0.22
 _ZN7QVectorI5QHashIN7Pokemon8uniqueIdEiEE13detach_helperEv@Base 2.0.22
 _ZN7QVectorI5QHashIN7Pokemon8uniqueIdEiEE6resizeEi@Base 2.0.22
 _ZN7QVectorI5QHashIN7Pokemon8uniqueIdEiEE7reallocEii@Base 2.0.22
 _ZN7QVectorI5QHashIN7Pokemon8uniqueIdEiEED1Ev@Base 2.0.22
 _ZN7QVectorI5QHashIN7Pokemon8uniqueIdEiEED2Ev@Base 2.0.22
 _ZN7QVectorI5QHashIi5QListIN8ItemInfo6EffectEEEE13detach_helperEv@Base 2.0.22
 _ZN7QVectorI5QHashIi5QListIN8ItemInfo6EffectEEEE7reallocEii@Base 2.0.22
 _ZN7QVectorI5QHashIi5QListIN8ItemInfo6EffectEEEED1Ev@Base 2.0.22
 _ZN7QVectorI5QHashIi5QListIN8ItemInfo6EffectEEEED2Ev@Base 2.0.22
 _ZN7QVectorI5QHashIiN11AbilityInfo6EffectEEE13detach_helperEv@Base 2.0.22
 _ZN7QVectorI5QHashIiN11AbilityInfo6EffectEEE7reallocEii@Base 2.0.22
 _ZN7QVectorI5QHashIiN11AbilityInfo6EffectEEED1Ev@Base 2.0.22
 _ZN7QVectorI5QHashIiN11AbilityInfo6EffectEEED2Ev@Base 2.0.22
 _ZN7QVectorI5QListI7QStringEE13detach_helperEv@Base 2.0.22
 _ZN7QVectorI5QListI7QStringEE6resizeEi@Base 2.0.22
 _ZN7QVectorI5QListI7QStringEE7reallocEii@Base 2.0.22
 _ZN7QVectorI5QListI7QStringEED1Ev@Base 2.0.22
 _ZN7QVectorI5QListI7QStringEED2Ev@Base 2.0.22
 _ZN7QVectorIhE13detach_helperEv@Base 2.0.22
 _ZN7QVectorIhE6appendERKh@Base 2.0.22
 _ZN7QVectorIhE7reallocEii@Base 2.0.22
 _ZN7QVectorIiE13detach_helperEv@Base 2.0.22
 _ZN7QVectorIiE6appendERKi@Base 2.0.22
 _ZN7QVectorIiE7reallocEii@Base 2.0.22
 _ZN7QVectorIiED1Ev@Base 2.0.22
 _ZN7QVectorIiED2Ev@Base 2.0.22
 _ZN8ItemInfo10BerryPowerEi@Base 2.0.22
 _ZN8ItemInfo10DriveFormeEi@Base 2.0.22
 _ZN8ItemInfo10m_GenItemsE@Base 2.0.22
 _ZN8ItemInfo11SortedNamesEN7Pokemon3genE@Base 2.0.22
 _ZN8ItemInfo11loadEffectsEv@Base 2.0.22
 _ZN8ItemInfo11loadGenDataEv@Base 2.0.22
 _ZN8ItemInfo11m_DirectoryE@Base 2.0.22
 _ZN8ItemInfo11retranslateEv@Base 2.0.22
 _ZN8ItemInfo12IsBattleItemEiN7Pokemon3genE@Base 2.0.22
 _ZN8ItemInfo12PlateForTypeEi@Base 2.0.22
 _ZN8ItemInfo12loadMessagesEv@Base 2.0.22
 _ZN8ItemInfo12m_BerryNamesE@Base 2.0.22
 _ZN8ItemInfo12m_BerryTypesE@Base 2.0.22
 _ZN8ItemInfo12m_ItemNamesHE@Base 2.0.22
 _ZN8ItemInfo12m_RegEffectsE@Base 2.0.22
 _ZN8ItemInfo13DriveForFormeEi@Base 2.0.22
 _ZN8ItemInfo13NumberOfItemsEv@Base 2.0.22
 _ZN8ItemInfo13loadFlingDataEv@Base 2.0.22
 _ZN8ItemInfo13m_BerryNamesHE@Base 2.0.22
 _ZN8ItemInfo13m_BerryPowersE@Base 2.0.22
 _ZN8ItemInfo13m_RegMessagesE@Base 2.0.22
 _ZN8ItemInfo13m_SortedNamesE@Base 2.0.22
 _ZN8ItemInfo13m_UsefulItemsE@Base 2.0.22
 _ZN8ItemInfo14m_BerryEffectsE@Base 2.0.22
 _ZN8ItemInfo14m_RegItemNamesE@Base 2.0.22
 _ZN8ItemInfo15m_BerryMessagesE@Base 2.0.22
 _ZN8ItemInfo17SortedUsefulNamesEN7Pokemon3genE@Base 2.0.22
 _ZN8ItemInfo19m_SortedUsefulNamesE@Base 2.0.22
 _ZN8ItemInfo4IconEi@Base 2.0.22
 _ZN8ItemInfo4NameEi@Base 2.0.22
 _ZN8ItemInfo4initERK7QString@Base 2.0.22
 _ZN8ItemInfo4pathERK7QString@Base 2.0.22
 _ZN8ItemInfo5PowerEi@Base 2.0.22
 _ZN8ItemInfo6ExistsEi@Base 2.0.22
 _ZN8ItemInfo6ExistsEiN7Pokemon3genE@Base 2.0.22
 _ZN8ItemInfo6NumberERK7QString@Base 2.0.22
 _ZN8ItemInfo6TargetEiN7Pokemon3genE@Base 2.0.22
 _ZN8ItemInfo6isMailEi@Base 2.0.22
 _ZN8ItemInfo7EffectsEiN7Pokemon3genE@Base 2.0.22
 _ZN8ItemInfo7MessageEii@Base 2.0.22
 _ZN8ItemInfo7isBerryEi@Base 2.0.22
 _ZN8ItemInfo7isDriveEi@Base 2.0.22
 _ZN8ItemInfo7isPlateEi@Base 2.0.22
 _ZN8ItemInfo8HeldItemEv@Base 2.0.22
 _ZN8ItemInfo8isUsefulEi@Base 2.0.22
 _ZN8ItemInfo8m_PowersE@Base 2.0.22
 _ZN8ItemInfo9BerryTypeEi@Base 2.0.22
 _ZN8ItemInfo9DriveTypeEi@Base 2.0.22
 _ZN8ItemInfo9PlateTypeEi@Base 2.0.22
 _ZN8ItemInfo9loadNamesEv@Base 2.0.22
 _ZN8MoveInfo10EffectRateEiN7Pokemon3genE@Base 2.0.22
 _ZN8MoveInfo10FlinchRateEiN7Pokemon3genE@Base 2.0.22
 _ZN8MoveInfo10RateOfStatEiN7Pokemon3genE@Base 2.0.22
 _ZN8MoveInfo10StatusKindEiN7Pokemon3genE@Base 2.0.22
 _ZN8MoveInfo10m_GenMovesE@Base 2.0.22
 _ZN8MoveInfo10m_KingRockE@Base 2.0.22
 _ZN8MoveInfo10m_OldMovesE@Base 2.0.22
 _ZN8MoveInfo11BoostOfStatEiN7Pokemon3genE@Base 2.0.22
 _ZN8MoveInfo11DescriptionEiN7Pokemon3genE@Base 2.0.22
 _ZN8MoveInfo11MoveMessageEii@Base 2.0.22
 _ZN8MoveInfo11loadDetailsEv@Base 2.0.22
 _ZN8MoveInfo11m_DirectoryE@Base 2.0.22
 _ZN8MoveInfo11retranslateEv@Base 2.0.22
 _ZN8MoveInfo12StatAffectedEiN7Pokemon3genE@Base 2.0.22
 _ZN8MoveInfo13CriticalRaiseEiN7Pokemon3genE@Base 2.0.22
 _ZN8MoveInfo13NumberOfMovesEN7Pokemon3genE@Base 2.0.22
 _ZN8MoveInfo13NumberOfMovesEv@Base 2.0.22
 _ZN8MoveInfo13SpecialEffectEiN7Pokemon3genE@Base 2.0.22
 _ZN8MoveInfo13SpeedPriorityEiN7Pokemon3genE@Base 2.0.22
 _ZN8MoveInfo14ClassificationEiN7Pokemon3genE@Base 2.0.22
 _ZN8MoveInfo14m_MoveMessagesE@Base 2.0.22
 _ZN8MoveInfo16FlinchByKingRockEiN7Pokemon3genE@Base 2.0.22
 _ZN8MoveInfo16loadMoveMessagesEv@Base 2.0.22
 _ZN8MoveInfo16m_LowerCaseMovesE@Base 2.0.22
 _ZN8MoveInfo18ConvertFromOldMoveEi@Base 2.0.22
 _ZN8MoveInfo19DetailedDescriptionEi@Base 2.0.22
 _ZN8MoveInfo2PPEiN7Pokemon3genE@Base 2.0.22
 _ZN8MoveInfo3AccEiN7Pokemon3genE@Base 2.0.22
 _ZN8MoveInfo3Gen11retranslateEv@Base 2.0.22
 _ZN8MoveInfo3Gen4loadERK7QStringN7Pokemon3genE@Base 2.0.22
 _ZN8MoveInfo3Gen4pathERK7QString@Base 2.0.22
 _ZN8MoveInfo3GenC1ERKS0_@Base 2.0.22
 _ZN8MoveInfo3GenC1Ev@Base 2.0.22
 _ZN8MoveInfo3GenC2ERKS0_@Base 2.0.22
 _ZN8MoveInfo3GenC2Ev@Base 2.0.22
 _ZN8MoveInfo3GenD1Ev@Base 2.0.22
 _ZN8MoveInfo3GenD2Ev@Base 2.0.22
 _ZN8MoveInfo4AccSEiN7Pokemon3genE@Base 2.0.22
 _ZN8MoveInfo4NameEi@Base 2.0.22
 _ZN8MoveInfo4TypeEiN7Pokemon3genE@Base 2.0.22
 _ZN8MoveInfo4gensE@Base 2.0.22
 _ZN8MoveInfo4initERK7QString@Base 2.0.22
 _ZN8MoveInfo4isHMEiN7Pokemon3genE@Base 2.0.22
 _ZN8MoveInfo4pathERK7QString@Base 2.0.22
 _ZN8MoveInfo5FlagsEiN7Pokemon3genE@Base 2.0.22
 _ZN8MoveInfo5MovesEN7Pokemon3genE@Base 2.0.22
 _ZN8MoveInfo5PowerEiN7Pokemon3genE@Base 2.0.22
 _ZN8MoveInfo6ExistsEiN7Pokemon3genE@Base 2.0.22
 _ZN8MoveInfo6NumberERK7QString@Base 2.0.22
 _ZN8MoveInfo6PowerSEiN7Pokemon3genE@Base 2.0.22
 _ZN8MoveInfo6RecoilEiN7Pokemon3genE@Base 2.0.22
 _ZN8MoveInfo6StatusEiN7Pokemon3genE@Base 2.0.22
 _ZN8MoveInfo6TargetEiN7Pokemon3genE@Base 2.0.22
 _ZN8MoveInfo6isOHKOEiN7Pokemon3genE@Base 2.0.22
 _ZN8MoveInfo7HealingEiN7Pokemon3genE@Base 2.0.22
 _ZN8MoveInfo7m_NamesE@Base 2.0.22
 _ZN8MoveInfo8CategoryEiN7Pokemon3genE@Base 2.0.22
 _ZN8MoveInfo8MaxTurnsEiN7Pokemon3genE@Base 2.0.22
 _ZN8MoveInfo8MinTurnsEiN7Pokemon3genE@Base 2.0.22
 _ZN8MoveInfo9RepeatMaxEiN7Pokemon3genE@Base 2.0.22
 _ZN8MoveInfo9RepeatMinEiN7Pokemon3genE@Base 2.0.22
 _ZN8MoveInfo9loadNamesEv@Base 2.0.22
 _ZN8MoveInfo9m_DetailsE@Base 2.0.22
 _ZN8PokeTeam11loadFromXmlERK11QDomElementi@Base 2.0.22
 _ZN8PokeTeam11loadQuietlyEv@Base 2.0.22
 _ZN8PokeTeam11sanityCheckEv@Base 2.0.22
 _ZN8PokeTeam4iconEv@Base 2.0.22
 _ZN8PokeTeam4loadEv@Base 2.0.22
 _ZN8PokeTeam6setGenEN7Pokemon3genE@Base 2.0.22
 _ZN8PokeTeam6setNumEN7Pokemon8uniqueIdE@Base 2.0.22
 _ZN8PokeTeam7pictureEv@Base 2.0.22
 _ZN8PokeTeam8runCheckEv@Base 2.0.22
 _ZN8PokeTeamC1Ev@Base 2.0.22
 _ZN8PokeTeamC2Ev@Base 2.0.22
 _ZN8PokeTeamD0Ev@Base 2.0.22
 _ZN8PokeTeamD1Ev@Base 2.0.22
 _ZN8StatInfo11ShortStatusEi@Base 2.0.22
 _ZN8StatInfo11m_DirectoryE@Base 2.0.22
 _ZN8StatInfo11retranslateEv@Base 2.0.22
 _ZN8StatInfo4StatEiRKN7Pokemon3genE@Base 2.0.22
 _ZN8StatInfo4initERK7QString@Base 2.0.22
 _ZN8StatInfo4pathERK7QString@Base 2.0.22
 _ZN8StatInfo6StatusEi@Base 2.0.22
 _ZN8StatInfo7m_statsE@Base 2.0.22
 _ZN8StatInfo8m_statusE@Base 2.0.22
 _ZN8TypeInfo11m_DirectoryE@Base 2.0.22
 _ZN8TypeInfo11retranslateEv@Base 2.0.22
 _ZN8TypeInfo11weatherNameEi@Base 2.0.22
 _ZN8TypeInfo12m_CategoriesE@Base 2.0.22
 _ZN8TypeInfo12m_TypeVsTypeE@Base 2.0.22
 _ZN8TypeInfo13NumberOfTypesEv@Base 2.0.22
 _ZN8TypeInfo14TypeForWeatherEi@Base 2.0.22
 _ZN8TypeInfo14loadCategoriesEv@Base 2.0.22
 _ZN8TypeInfo16m_TypeVsTypeGen1E@Base 2.0.22
 _ZN8TypeInfo3EffEiiN7Pokemon3genE@Base 2.0.22
 _ZN8TypeInfo4NameEi@Base 2.0.22
 _ZN8TypeInfo4initERK7QString@Base 2.0.22
 _ZN8TypeInfo4pathERK7QString@Base 2.0.22
 _ZN8TypeInfo6NumberERK7QString@Base 2.0.22
 _ZN8TypeInfo7loadEffEv@Base 2.0.22
 _ZN8TypeInfo7m_NamesE@Base 2.0.22
 _ZN8TypeInfo8CategoryEi@Base 2.0.22
 _ZN8TypeInfo9loadNamesEv@Base 2.0.22
 _ZN9LoginInfoC1Ev@Base 2.0.22
 _ZN9LoginInfoC2Ev@Base 2.0.22
 _ZN9LoginInfoD1Ev@Base 2.0.22
 _ZN9LoginInfoD2Ev@Base 2.0.22
 _ZN9QHashNodeIN7Pokemon3genEN11PokemonInfo3GenEEC1ERKS1_RKS3_@Base 2.0.22
 _ZN9QHashNodeIN7Pokemon3genEN11PokemonInfo3GenEEC2ERKS1_RKS3_@Base 2.0.22
 _ZN9TeamSaver11qt_metacallEN11QMetaObject4CallEiPPv@Base 2.0.22
 _ZN9TeamSaver11qt_metacastEPKc@Base 2.0.22
 _ZN9TeamSaver16fileNameReceivedERK7QString@Base 2.0.22
 _ZN9TeamSaver16staticMetaObjectE@Base 2.0.22
 _ZN9TeamSaver17fileNameReceivedLERK7QString@Base 2.0.22
 _ZN9TeamSaverC1EP4Team@Base 2.0.22
 _ZN9TeamSaverC2EP4Team@Base 2.0.22
 _ZN9TeamSaverD0Ev@Base 2.0.22
 _ZN9TeamSaverD1Ev@Base 2.0.22
 _ZN9TeamSaverD2Ev@Base 2.0.22
 _ZNK10PokeBattle10normalStatEi@Base 2.0.22
 _ZNK10PokeBattle11lifePercentEv@Base 2.0.22
 _ZNK10PokeBattle4lifeEv@Base 2.0.22
 _ZNK10PokeBattle4moveEi@Base 2.0.22
 _ZNK10PokeBattle9totalLifeEv@Base 2.0.22
 _ZNK10TeamBattle10internalIdERK10PokeBattle@Base 2.0.22
 _ZNK10TeamBattle15getByInternalIdEi@Base 2.0.22
 _ZNK10TeamBattle4pokeEi@Base 2.0.22
 _ZNK10TeamBattle7invalidEv@Base 2.0.22
 _ZNK11PokeGeneral11genderAvailEv@Base 2.0.22
 _ZNK11PokeGeneral5movesEv@Base 2.0.22
 _ZNK11PokeGeneral5type1Ev@Base 2.0.22
 _ZNK11PokeGeneral5type2Ev@Base 2.0.22
 _ZNK11PokeGeneral9abilitiesEv@Base 2.0.22
 _ZNK12BattleChoice5matchERK13BattleChoices@Base 2.0.22
 _ZNK12PokeGraphics3genEv@Base 2.0.22
 _ZNK12PokeGraphics3numEv@Base 2.0.22
 _ZNK12PokeGraphics8upToDateEv@Base 2.0.22
 _ZNK12PokePersonal11natureBoostEi@Base 2.0.22
 _ZNK12PokePersonal2DVEi@Base 2.0.22
 _ZNK12PokePersonal2EVEi@Base 2.0.22
 _ZNK12PokePersonal4moveEi@Base 2.0.22
 _ZNK12PokePersonal5EVSumEv@Base 2.0.22
 _ZNK13PokeBaseStats10baseAttackEv@Base 2.0.22
 _ZNK13PokeBaseStats11baseDefenseEv@Base 2.0.22
 _ZNK13PokeBaseStats12baseSpAttackEv@Base 2.0.22
 _ZNK13PokeBaseStats13baseSpDefenseEv@Base 2.0.22
 _ZNK13PokeBaseStats6baseHpEv@Base 2.0.22
 _ZNK13PokeBaseStats8baseStatEi@Base 2.0.22
 _ZNK13PokeBaseStats9baseSpeedEv@Base 2.0.22
 _ZNK17ShallowBattlePoke11lifePercentEv@Base 2.0.22
 _ZNK17ShallowBattlePoke4lifeEv@Base 2.0.22
 _ZNK17ShallowBattlePoke6statusEv@Base 2.0.22
 _ZNK17ShallowBattlePoke9hasStatusEi@Base 2.0.22
 _ZNK17ShallowBattlePoke9totalLifeEv@Base 2.0.22
 _ZNK4QMapIN7Pokemon8uniqueIdE7QStringE8findNodeERKS1_@Base 2.0.22
 _ZNK4QSetIiE6toListEv@Base 2.0.22
 _ZNK4Team10saveToFileERK7QString@Base 2.0.22
 _ZNK4Team11exportToTxtEv@Base 2.0.22
 _ZNK4Team4nameEv@Base 2.0.22
 _ZNK4Team5toXmlER12QDomDocument@Base 2.0.22
 _ZNK4Team5toXmlEv@Base 2.0.22
 _ZNK4Team6folderEv@Base 2.0.22
 _ZNK5QHashI7QStringiE8findNodeERKS0_Pj@Base 2.0.22
 _ZNK5QHashI7QStringtE8findNodeERKS0_Pj@Base 2.0.22
 _ZNK5QHashIN7Pokemon3genE7QStringE4keysEv@Base 2.0.22
 _ZNK5QHashIN7Pokemon3genE7QStringE8findNodeERKS1_Pj@Base 2.0.22
 _ZNK5QHashIN7Pokemon3genEN11PokemonInfo3GenEE8findNodeERKS1_Pj@Base 2.0.22
 _ZNK5QHashIN7Pokemon3genEN8MoveInfo3GenEE8findNodeERKS1_Pj@Base 2.0.22
 _ZNK5QHashIN7Pokemon3genES_INS0_8uniqueIdE5QListI4QSetIiEEEE8findNodeERKS1_Pj@Base 2.0.22
 _ZNK5QHashIN7Pokemon8uniqueIdE12PokemonMovesE4keysEv@Base 2.0.22
 _ZNK5QHashIN7Pokemon8uniqueIdE12PokemonMovesE5valueERKS1_@Base 2.0.22
 _ZNK5QHashIN7Pokemon8uniqueIdE12PokemonMovesE8findNodeERKS1_Pj@Base 2.0.22
 _ZNK5QHashIN7Pokemon8uniqueIdE13PokeBaseStatsE8findNodeERKS1_Pj@Base 2.0.22
 _ZNK5QHashIN7Pokemon8uniqueIdE15QHashDummyValueE8findNodeERKS1_Pj@Base 2.0.22
 _ZNK5QHashIN7Pokemon8uniqueIdE5QListI4QSetIiEEE4keysEv@Base 2.0.22
 _ZNK5QHashIN7Pokemon8uniqueIdE5QListI4QSetIiEEE8findNodeERKS1_Pj@Base 2.0.22
 _ZNK5QHashIN7Pokemon8uniqueIdE7QStringE8findNodeERKS1_Pj@Base 2.0.22
 _ZNK5QHashIN7Pokemon8uniqueIdEiE8findNodeERKS1_Pj@Base 2.0.22
 _ZNK5QHashIi5QListIN8ItemInfo6EffectEEE5valueERKi@Base 2.0.22
 _ZNK5QHashIi5QListIiEE4keysEv@Base 2.0.22
 _ZNK5QHashIi7QStringE3keyERKS0_RKi@Base 2.0.22
 _ZNK5QHashIi7QStringE4keysEv@Base 2.0.22
 _ZNK5QHashIi7QStringE6valuesEv@Base 2.0.22
 _ZNK5QListI7QStringE7indexOfERKS0_i@Base 2.0.22
 _ZNK5QListIiE7indexOfERKii@Base 2.0.22
 _ZNK5QListIiE8containsERKi@Base 2.0.22
 _ZNK7Pokemon8uniqueId6toLineERK7QString@Base 2.0.22
 _ZNK7Pokemon8uniqueId8toStringEv@Base 2.0.22
 _ZNK7Pokemon8uniqueId9toPokeRefEv@Base 2.0.22
 _ZNK8PokeTeam3genEv@Base 2.0.22
 _ZNK8PokeTeam3numEv@Base 2.0.22
 _ZNK8PokeTeam4statEi@Base 2.0.22
 _ZNK8PokeTeam5toXmlER11QDomElement@Base 2.0.22
 _ZNK9TeamSaver10metaObjectEv@Base 2.0.22
 _ZTI10DataStream@Base 2.0.22
 _ZTI10PokeBattle@Base 2.0.22
 _ZTI11PokeGeneral@Base 2.0.22
 _ZTI12PokeGraphics@Base 2.0.22
 _ZTI12PokePersonal@Base 2.0.22
 _ZTI17ShallowBattlePoke@Base 2.0.22
 _ZTI7QString@Base 2.0.22
 _ZTI8PokeTeam@Base 2.0.22
 _ZTI9TeamSaver@Base 2.0.22
 _ZTS10DataStream@Base 2.0.22
 _ZTS10PokeBattle@Base 2.0.22
 _ZTS11PokeGeneral@Base 2.0.22
 _ZTS12PokeGraphics@Base 2.0.22
 _ZTS12PokePersonal@Base 2.0.22
 _ZTS17ShallowBattlePoke@Base 2.0.22
 _ZTS7QString@Base 2.0.22
 _ZTS8PokeTeam@Base 2.0.22
 _ZTS9TeamSaver@Base 2.0.22
 _ZTT8PokeTeam@Base 2.0.22
 _ZTV10DataStream@Base 2.0.22
 _ZTV10PokeBattle@Base 2.0.22
 _ZTV11PokeGeneral@Base 2.0.22
 _ZTV17ShallowBattlePoke@Base 2.0.22
 _ZTV8PokeTeam@Base 2.0.22
 _ZTV9TeamSaver@Base 2.0.22
 _ZTv0_n24_N8PokeTeamD0Ev@Base 2.0.22
 _ZTv0_n24_N8PokeTeamD1Ev@Base 2.0.22
 _ZlsR10DataStreamRK10BattleMove@Base 2.0.22
 _ZlsR10DataStreamRK10PlayerInfo@Base 2.0.22
 _ZlsR10DataStreamRK10PokeBattle@Base 2.0.22
 _ZlsR10DataStreamRK10TeamBattle@Base 2.0.22
 _ZlsR10DataStreamRK11TrainerInfo@Base 2.0.22
 _ZlsR10DataStreamRK12BattleChoice@Base 2.0.22
 _ZlsR10DataStreamRK12PokePersonal@Base 2.0.22
 _ZlsR10DataStreamRK13BattleChoices@Base 2.0.22
 _ZlsR10DataStreamRK13ChallengeInfo@Base 2.0.22
 _ZlsR10DataStreamRK14FindBattleData@Base 2.0.22
 _ZlsR10DataStreamRK15ProtocolVersion@Base 2.0.22
 _ZlsR10DataStreamRK16ShallowShownPoke@Base 2.0.22
 _ZlsR10DataStreamRK16ShallowShownTeam@Base 2.0.22
 _ZlsR10DataStreamRK17ShallowBattlePoke@Base 2.0.22
 _ZlsR10DataStreamRK23FullBattleConfiguration@Base 2.0.22
 _ZlsR10DataStreamRK4Team@Base 2.0.22
 _ZlsR10DataStreamRK6Battle@Base 2.0.22
 _ZlsR10DataStreamRKN7Pokemon3genE@Base 2.0.22
 _ZlsR10DataStreamRKN7Pokemon8uniqueIdE@Base 2.0.22
 _ZrsI7QStringER10DataStreamS2_R5QListIT_E@Base 2.0.22
 _ZrsR10DataStreamR10BattleMove@Base 2.0.22
 _ZrsR10DataStreamR10PlayerInfo@Base 2.0.22
 _ZrsR10DataStreamR10PokeBattle@Base 2.0.22
 _ZrsR10DataStreamR10ServerInfo@Base 2.0.22
 _ZrsR10DataStreamR10TeamBattle@Base 2.0.22
 _ZrsR10DataStreamR11TrainerInfo@Base 2.0.22
 _ZrsR10DataStreamR12BattleChoice@Base 2.0.22
 _ZrsR10DataStreamR12PersonalTeam@Base 2.0.22
 _ZrsR10DataStreamR12PokePersonal@Base 2.0.22
 _ZrsR10DataStreamR13BattleChoices@Base 2.0.22
 _ZrsR10DataStreamR13ChallengeInfo@Base 2.0.22
 _ZrsR10DataStreamR14FindBattleData@Base 2.0.22
 _ZrsR10DataStreamR15ProtocolVersion@Base 2.0.22
 _ZrsR10DataStreamR16ShallowShownPoke@Base 2.0.22
 _ZrsR10DataStreamR16ShallowShownTeam@Base 2.0.22
 _ZrsR10DataStreamR17ShallowBattlePoke@Base 2.0.22
 _ZrsR10DataStreamR23FullBattleConfiguration@Base 2.0.22
 _ZrsR10DataStreamR6Battle@Base 2.0.22
 _ZrsR10DataStreamR9LoginInfo@Base 2.0.22
 _ZrsR10DataStreamRN7Pokemon3genE@Base 2.0.22
 _ZrsR10DataStreamRN7Pokemon8uniqueIdE@Base 2.0.22
 _ZrsR11QTextStreamRN7Pokemon8uniqueIdE@Base 2.0.22
